ccopy_reg
_reconstructor
p0
(cdedupe.datamodel
DataModel
p1
c__builtin__
dict
p2
(dp3
S'fields'
p4
(lp5
g0
(cdedupe.variables.string
StringType
p6
c__builtin__
object
p7
Ntp8
Rp9
(dp10
S'predicates'
p11
(lp12
g0
(cdedupe.predicates
SimplePredicate
p13
g7
Ntp14
Rp15
(dp16
S'__name__'
p17
S'(wholeFieldPredicate, name)'
p18
sS'func'
p19
cdedupe.predicates
wholeFieldPredicate
p20
sS'field'
p21
S'name'
p22
sbag0
(g13
g7
Ntp23
Rp24
(dp25
g17
S'(firstTokenPredicate, name)'
p26
sg19
cdedupe.predicates
firstTokenPredicate
p27
sg21
g22
sbag0
(g13
g7
Ntp28
Rp29
(dp30
g17
S'(commonIntegerPredicate, name)'
p31
sg19
cdedupe.predicates
commonIntegerPredicate
p32
sg21
g22
sbag0
(g13
g7
Ntp33
Rp34
(dp35
g17
S'(nearIntegersPredicate, name)'
p36
sg19
cdedupe.predicates
nearIntegersPredicate
p37
sg21
g22
sbag0
(g13
g7
Ntp38
Rp39
(dp40
g17
S'(firstIntegerPredicate, name)'
p41
sg19
cdedupe.predicates
firstIntegerPredicate
p42
sg21
g22
sbag0
(g13
g7
Ntp43
Rp44
(dp45
g17
S'(sameThreeCharStartPredicate, name)'
p46
sg19
cdedupe.predicates
sameThreeCharStartPredicate
p47
sg21
g22
sbag0
(g13
g7
Ntp48
Rp49
(dp50
g17
S'(sameFiveCharStartPredicate, name)'
p51
sg19
cdedupe.predicates
sameFiveCharStartPredicate
p52
sg21
g22
sbag0
(g13
g7
Ntp53
Rp54
(dp55
g17
S'(sameSevenCharStartPredicate, name)'
p56
sg19
cdedupe.predicates
sameSevenCharStartPredicate
p57
sg21
g22
sbag0
(g13
g7
Ntp58
Rp59
(dp60
g17
S'(commonTwoTokens, name)'
p61
sg19
cdedupe.predicates
commonTwoTokens
p62
sg21
g22
sbag0
(g13
g7
Ntp63
Rp64
(dp65
g17
S'(commonThreeTokens, name)'
p66
sg19
cdedupe.predicates
commonThreeTokens
p67
sg21
g22
sbag0
(g13
g7
Ntp68
Rp69
(dp70
g17
S'(fingerprint, name)'
p71
sg19
cdedupe.predicates
fingerprint
p72
sg21
g22
sbag0
(g13
g7
Ntp73
Rp74
(dp75
g17
S'(oneGramFingerprint, name)'
p76
sg19
cdedupe.predicates
oneGramFingerprint
p77
sg21
g22
sbag0
(g13
g7
Ntp78
Rp79
(dp80
g17
S'(twoGramFingerprint, name)'
p81
sg19
cdedupe.predicates
twoGramFingerprint
p82
sg21
g22
sbag0
(g13
g7
Ntp83
Rp84
(dp85
g17
S'(sortedAcronym, name)'
p86
sg19
cdedupe.predicates
sortedAcronym
p87
sg21
g22
sbag0
(g13
g7
Ntp88
Rp89
(dp90
g17
S'(commonFourGram, name)'
p91
sg19
cdedupe.predicates
commonFourGram
p92
sg21
g22
sbag0
(g13
g7
Ntp93
Rp94
(dp95
g17
S'(commonSixGram, name)'
p96
sg19
cdedupe.predicates
commonSixGram
p97
sg21
g22
sbag0
(g13
g7
Ntp98
Rp99
(dp100
g17
S'(tokenFieldPredicate, name)'
p101
sg19
cdedupe.predicates
tokenFieldPredicate
p102
sg21
g22
sbag0
(g13
g7
Ntp103
Rp104
(dp105
g17
S'(suffixArray, name)'
p106
sg19
cdedupe.predicates
suffixArray
p107
sg21
g22
sbag0
(g13
g7
Ntp108
Rp109
(dp110
g17
S'(doubleMetaphone, name)'
p111
sg19
cdedupe.predicates
doubleMetaphone
p112
sg21
g22
sbag0
(g13
g7
Ntp113
Rp114
(dp115
g17
S'(metaphoneToken, name)'
p116
sg19
cdedupe.predicates
metaphoneToken
p117
sg21
g22
sbag0
(cdedupe.predicates
TfidfNGramCanopyPredicate
p118
g7
Ntp119
Rp120
(dp121
S'threshold'
p122
F0.2
sg17
S'(0.2, name)'
p123
sg21
g22
sbag0
(g118
g7
Ntp124
Rp125
(dp126
g122
F0.4
sg17
S'(0.4, name)'
p127
sg21
g22
sbag0
(g118
g7
Ntp128
Rp129
(dp130
g122
F0.6
sg17
S'(0.6, name)'
p131
sg21
g22
sbag0
(g118
g7
Ntp132
Rp133
(dp134
g122
F0.8
sg17
S'(0.8, name)'
p135
sg21
g22
sbag0
(cdedupe.predicates
TfidfNGramSearchPredicate
p136
g7
Ntp137
Rp138
(dp139
g122
F0.2
sg17
S'(0.2, name)'
p140
sg21
g22
sbag0
(g136
g7
Ntp141
Rp142
(dp143
g122
F0.4
sg17
S'(0.4, name)'
p144
sg21
g22
sbag0
(g136
g7
Ntp145
Rp146
(dp147
g122
F0.6
sg17
S'(0.6, name)'
p148
sg21
g22
sbag0
(g136
g7
Ntp149
Rp150
(dp151
g122
F0.8
sg17
S'(0.8, name)'
p152
sg21
g22
sbag0
(cdedupe.predicates
TfidfTextCanopyPredicate
p153
g7
Ntp154
Rp155
(dp156
g122
F0.2
sg17
S'(0.2, name)'
p157
sg21
g22
sbag0
(g153
g7
Ntp158
Rp159
(dp160
g122
F0.4
sg17
S'(0.4, name)'
p161
sg21
g22
sbag0
(g153
g7
Ntp162
Rp163
(dp164
g122
F0.6
sg17
S'(0.6, name)'
p165
sg21
g22
sbag0
(g153
g7
Ntp166
Rp167
(dp168
g122
F0.8
sg17
S'(0.8, name)'
p169
sg21
g22
sbag0
(cdedupe.predicates
TfidfTextSearchPredicate
p170
g7
Ntp171
Rp172
(dp173
g122
F0.2
sg17
S'(0.2, name)'
p174
sg21
g22
sbag0
(g170
g7
Ntp175
Rp176
(dp177
g122
F0.4
sg17
S'(0.4, name)'
p178
sg21
g22
sbag0
(g170
g7
Ntp179
Rp180
(dp181
g122
F0.6
sg17
S'(0.6, name)'
p182
sg21
g22
sbag0
(g170
g7
Ntp183
Rp184
(dp185
g122
F0.8
sg17
S'(0.8, name)'
p186
sg21
g22
sbasg21
g22
sg22
S'(name: String)'
p187
sS'weight'
p188
F-4.206959578158161
sS'has_missing'
p189
I00
sbag0
(cdedupe.variables.string
TextType
p190
g7
Ntp191
Rp192
(dp193
g22
S'(name: Text)'
p194
sS'comparator'
p195
g0
(csimplecosine.cosine
CosineTextSimilarity
p196
g7
Ntp197
Rp198
(dp199
S'default_score'
p200
F8.39049553837028
sS'vectors'
p201
(dp202
sS'doc_freq'
p203
(dp204
S'horsemans'
p205
F8.39049553837028
sS'msgr'
p206
F8.39049553837028
sS'hats'
p207
F8.39049553837028
sS'mansfield'
p208
F8.39049553837028
sS'dynamic'
p209
F8.39049553837028
sS'all'
p210
F5.7514382087550215
sS'yellow'
p211
F8.39049553837028
sS'four'
p212
F7.29188324970217
sS'woods'
p213
F6.598736069142225
sS'giddey'
p214
F8.39049553837028
sS'asian'
p215
F7.29188324970217
sS'negc'
p216
F8.39049553837028
sS'wanlass'
p217
F8.39049553837028
sS'ttees'
p218
F8.39049553837028
sS'mwr'
p219
F8.39049553837028
sS'(svsf)'
p220
F8.39049553837028
sS'wallstreet'
p221
F8.39049553837028
sS'sprague'
p222
F8.39049553837028
sS'corktown'
p223
F6.78105762593618
sS'assembles'
p224
F7.697348357810335
sS'edward'
p225
F8.39049553837028
sS'lord'
p226
F6.598736069142225
sS'pride'
p227
F7.697348357810335
sS'meadows'
p228
F8.39049553837028
sS'cruising'
p229
F8.39049553837028
sS'rescue'
p230
F6.311053996690444
sS'davison'
p231
F7.697348357810335
sS'compassion'
p232
F7.29188324970217
sS'brightmoor'
p233
F6.19327096103406
sS'regional'
p234
F6.444585389314967
sS'homeownersip'
p235
F8.39049553837028
sS'delo'
p236
F8.39049553837028
sS'hermon'
p237
F7.697348357810335
sS'every'
p238
F8.39049553837028
sS'jack'
p239
F7.697348357810335
sS'purolator'
p240
F8.39049553837028
sS'courageous'
p241
F8.39049553837028
sS'missionary'
p242
F3.530683134008608
sS'chapel'
p243
F5.68244533726807
sS'partnershipus'
p244
F8.39049553837028
sS'present!'
p245
F8.39049553837028
sS'1115220704'
p246
F8.39049553837028
sS'progression'
p247
F8.39049553837028
sS'holiness'
p248
F6.19327096103406
sS'skills'
p249
F8.39049553837028
sS'supports'
p250
F8.39049553837028
sS'cme'
p251
F7.697348357810335
sS'commons'
p252
F7.697348357810335
sS'ecorse'
p253
F8.39049553837028
sS'gaelic'
p254
F8.39049553837028
sS'nursery'
p255
F8.39049553837028
sS'leeleefilms'
p256
F8.39049553837028
sS'299'
p257
F8.39049553837028
sS'employees'
p258
F4.629295422676718
sS'harriet'
p259
F7.29188324970217
sS'planit'
p260
F8.39049553837028
sS'triumph'
p261
F8.39049553837028
sS'inkster'
p262
F8.39049553837028
sS'jamaica'
p263
F8.39049553837028
sS'charter'
p264
F7.29188324970217
sS'leaders'
p265
F6.78105762593618
sS'bo'
p266
F8.39049553837028
sS'rebuilding'
p267
F7.697348357810335
sS'tumey'
p268
F8.39049553837028
sS'direct'
p269
F8.39049553837028
sS'philomena'
p270
F8.39049553837028
sS'luna'
p271
F8.39049553837028
sS'chef'
p272
F8.39049553837028
sS'goepper'
p273
F8.39049553837028
sS'second'
p274
F5.90558888858228
sS'street'
p275
F5.99260026557191
sS'summer'
p276
F6.598736069142225
sS'evangical'
p277
F8.39049553837028
sS'aux'
p278
F8.39049553837028
sS'paynepulliam'
p279
F8.39049553837028
sS'soave'
p280
F7.697348357810335
sS'automobile'
p281
F8.39049553837028
sS'blue'
p282
F7.697348357810335
sS'established'
p283
F8.39049553837028
sS'spouses'
p284
F7.697348357810335
sS'bh'
p285
F8.39049553837028
sS'christ'
p286
F3.3865492324248208
sS'jordon'
p287
F8.39049553837028
sS'prisons'
p288
F8.39049553837028
sS'religious'
p289
F8.39049553837028
sS'+'
p290
F8.39049553837028
sS'orchestra'
p291
F6.19327096103406
sS'liberty'
p292
F6.311053996690444
sS'brunettes'
p293
F8.39049553837028
sS'lights'
p294
F8.39049553837028
sS'kloberdanz'
p295
F8.39049553837028
sS'irrevocable'
p296
F8.39049553837028
sS'supplier'
p297
F8.39049553837028
sS'new'
p298
F3.5229610879146973
sS'upward'
p299
F8.39049553837028
sS'petra'
p300
F8.39049553837028
sS'mamas'
p301
F8.39049553837028
sS'seminars'
p302
F7.697348357810335
sS'(aka'
p303
F8.39049553837028
sS'avery'
p304
F8.39049553837028
sS'miistries'
p305
F8.39049553837028
sS'men'
p306
F6.444585389314967
sS'here'
p307
F7.29188324970217
sS'alpena'
p308
F8.39049553837028
sS'lgbt'
p309
F7.697348357810335
sS'protection'
p310
F8.39049553837028
sS'studio'
p311
F7.00420117725039
sS'iroquois'
p312
F8.39049553837028
sS'mnbd'
p313
F8.39049553837028
sS'represented'
p314
F8.39049553837028
sS'path'
p315
F8.39049553837028
sS'100'
p316
F7.29188324970217
sS'lytle'
p317
F8.39049553837028
sS'tatum'
p318
F7.697348357810335
sS'disciples'
p319
F7.697348357810335
sS'rapha'
p320
F7.697348357810335
sS'luther'
p321
F8.39049553837028
sS'kids'
p322
F6.444585389314967
sS'forum'
p323
F7.29188324970217
sS'ventures'
p324
F8.39049553837028
sS'9342179250011'
p325
F8.39049553837028
sS'kidz'
p326
F7.697348357810335
sS'oasis'
p327
F8.39049553837028
sS'waterproofg'
p328
F8.39049553837028
sS'anchor'
p329
F8.39049553837028
sS'credit'
p330
F6.311053996690444
sS'mentor'
p331
F8.39049553837028
sS'chrysler'
p332
F7.00420117725039
sS'serco'
p333
F8.39049553837028
sS'aka'
p334
F7.697348357810335
sS'changes'
p335
F7.697348357810335
sS'uprise'
p336
F8.39049553837028
sS'golden'
p337
F7.29188324970217
sS'prints'
p338
F8.39049553837028
sS'jamaa'
p339
F8.39049553837028
sS'resurrected'
p340
F7.697348357810335
sS'chalmers'
p341
F7.697348357810335
sS'26j187000'
p342
F8.39049553837028
sS'jareseth'
p343
F8.39049553837028
sS'cunninghammemorial'
p344
F8.39049553837028
sS'county'
p345
F4.33005252782386
sS'remnant'
p346
F8.39049553837028
sS'jackets'
p347
F7.697348357810335
sS'org'
p348
F8.39049553837028
sS'total'
p349
F6.598736069142225
sS'univ'
p350
F7.697348357810335
sS'unit'
p351
F8.39049553837028
sS'affirming'
p352
F8.39049553837028
sS'sarah'
p353
F7.29188324970217
sS'sarai'
p354
F8.39049553837028
sS'army'
p355
F7.697348357810335
sS'commissioned'
p356
F7.697348357810335
sS'remainder'
p357
F8.39049553837028
sS'hospital'
p358
F5.68244533726807
sS'm.'
p359
F7.697348357810335
sS'arms'
p360
F7.697348357810335
sS'calabar'
p361
F8.39049553837028
sS'uawchrysler'
p362
F8.39049553837028
sS'symphony'
p363
F6.311053996690444
sS'm1'
p364
F7.697348357810335
sS'scruggs'
p365
F8.39049553837028
sS'm2'
p366
F8.39049553837028
sS'grahams'
p367
F8.39049553837028
sS'saras'
p368
F8.39049553837028
sS'assessment'
p369
F7.697348357810335
sS'tell'
p370
F8.39049553837028
sS'mckinney'
p371
F8.39049553837028
sS'mystical'
p372
F7.697348357810335
sS'goodfellows'
p373
F8.39049553837028
sS'holy'
p374
F5.299453085011964
sS'successful'
p375
F8.39049553837028
sS'adcraft'
p376
F8.39049553837028
sS'wars'
p377
F7.00420117725039
sS'huru'
p378
F8.39049553837028
sS'liberian'
p379
F8.39049553837028
sS'glass'
p380
F7.697348357810335
sS'warm'
p381
F8.39049553837028
sS'hermelin'
p382
F8.39049553837028
sS'adult'
p383
F5.99260026557191
sS'holi'
p384
F8.39049553837028
sS'excellent'
p385
F6.78105762593618
sS'hold'
p386
F8.39049553837028
sS'supplemental'
p387
F7.29188324970217
sS'shoot'
p388
F8.39049553837028
sS'pontifical'
p389
F7.697348357810335
sS'word'
p390
F4.956508333885133
sS'room'
p391
F8.39049553837028
sS'rights'
p392
F7.00420117725039
sS'presentation'
p393
F8.39049553837028
sS'work'
p394
F6.444585389314967
sS'mi'
p395
F6.598736069142225
sS'advocacy'
p396
F7.00420117725039
sS'worth'
p397
F8.39049553837028
sS'mu'
p398
F8.39049553837028
sS'mt'
p399
F4.9892981567081245
sS'grover'
p400
F8.39049553837028
sS'era'
p401
F8.39049553837028
sS'erb'
p402
F8.39049553837028
sS'henry'
p403
F5.500123780474115
sS'elbow'
p404
F8.39049553837028
sS'foudation'
p405
F8.39049553837028
sS'jamal'
p406
F8.39049553837028
sS'hansen'
p407
F8.39049553837028
sS'root'
p408
F7.697348357810335
sS'carmel'
p409
F7.697348357810335
sS'matilda'
p410
F7.697348357810335
sS'metroeast'
p411
F8.39049553837028
sS'estate'
p412
F7.00420117725039
sS'mumford'
p413
F8.39049553837028
sS'555'
p414
F7.697348357810335
sS'(tru)'
p415
F8.39049553837028
sS'preserving'
p416
F8.39049553837028
sS'gordy'
p417
F8.39049553837028
sS'uaw'
p418
F6.311053996690444
sS'foods'
p419
F8.39049553837028
sS'esther'
p420
F6.78105762593618
sS'horace'
p421
F8.39049553837028
sS'want'
p422
F8.39049553837028
sS'miraclegro'
p423
F8.39049553837028
sS'counseling'
p424
F6.78105762593618
sS'keep'
p425
F7.29188324970217
sS'recoverypark'
p426
F8.39049553837028
sS'aging'
p427
F7.697348357810335
sS'chariots'
p428
F8.39049553837028
sS'end'
p429
F8.39049553837028
sS'recovery'
p430
F6.444585389314967
sS'turn'
p431
F8.39049553837028
sS'provide'
p432
F7.29188324970217
sS'ruffner'
p433
F8.39049553837028
sS'crusaders'
p434
F8.39049553837028
sS'amazing'
p435
F7.697348357810335
sS'calvary'
p436
F6.19327096103406
sS'destitution'
p437
F8.39049553837028
sS'gate'
p438
F7.29188324970217
sS'(dol)'
p439
F8.39049553837028
sS'beach'
p440
F8.39049553837028
sS'motorcyle'
p441
F8.39049553837028
sS'26'
p442
F8.39049553837028
sS'omowale'
p443
F8.39049553837028
sS'lao'
p444
F8.39049553837028
sS'ryderz'
p445
F8.39049553837028
sS'minority'
p446
F7.00420117725039
sS'beauty'
p447
F8.39049553837028
sS'transforming'
p448
F8.39049553837028
sS'cadillac'
p449
F8.39049553837028
sS'ladder'
p450
F8.39049553837028
sS'after'
p451
F6.78105762593618
sS'mclauchlin'
p452
F8.39049553837028
sS'modest'
p453
F8.39049553837028
sS'wgpr'
p454
F8.39049553837028
sS'kaboom!'
p455
F8.39049553837028
sS'techno'
p456
F8.39049553837028
sS'law'
p457
F6.311053996690444
sS'programinc'
p458
F8.39049553837028
sS'countydetroit'
p459
F8.39049553837028
sS'las'
p460
F8.39049553837028
sS'amil'
p461
F8.39049553837028
sS'willmas'
p462
F8.39049553837028
sS'third'
p463
F7.29188324970217
sS'homeowners'
p464
F8.39049553837028
sS'lost'
p465
F8.39049553837028
sS'christus'
p466
F8.39049553837028
sS'greek'
p467
F8.39049553837028
sS'green'
p468
F6.0879104453762345
sS'dbla'
p469
F8.39049553837028
sS'grannys'
p470
F8.39049553837028
sS'first'
p471
F5.058291028195076
sS'athletes'
p472
F7.29188324970217
sS'order'
p473
F5.446056559203839
sS'wind'
p474
F8.39049553837028
sS'joseph'
p475
F6.598736069142225
sS'operations'
p476
F8.39049553837028
sS'torgow'
p477
F8.39049553837028
sS'school)'
p478
F8.39049553837028
sS'deco'
p479
F8.39049553837028
sS'office'
p480
F6.444585389314967
sS'fam'
p481
F8.39049553837028
sS'zen'
p482
F8.39049553837028
sS'sickle'
p483
F7.697348357810335
sS'murray'
p484
F8.39049553837028
sS'mabel'
p485
F8.39049553837028
sS'innovative'
p486
F8.39049553837028
sS'oakland'
p487
F7.697348357810335
sS'japan'
p488
F7.29188324970217
sS'panthers'
p489
F8.39049553837028
sS'ebenezer'
p490
F6.78105762593618
sS'homebuyers'
p491
F8.39049553837028
sS'grandmont'
p492
F6.78105762593618
sS'lifeline'
p493
F7.697348357810335
sS'edith'
p494
F7.697348357810335
sS'staage'
p495
F8.39049553837028
sS'edge'
p496
F8.39049553837028
sS'better'
p497
F6.444585389314967
sS'damascus'
p498
F8.39049553837028
sS'magnetic'
p499
F8.39049553837028
sS'represent!'
p500
F8.39049553837028
sS'differently'
p501
F8.39049553837028
sS'wellness'
p502
F6.78105762593618
sS'hidden'
p503
F7.697348357810335
sS'agriculturalprogram'
p504
F8.39049553837028
sS'harmony'
p505
F7.00420117725039
sS'lakeshore'
p506
F8.39049553837028
sS'coffee'
p507
F8.39049553837028
sS'bethesda'
p508
F7.29188324970217
sS'skillz'
p509
F8.39049553837028
sS'lambert'
p510
F7.697348357810335
sS'unemployed'
p511
F8.39049553837028
sS'safe'
p512
F6.78105762593618
sS'school'
p513
F4.263361153325189
sS'band'
p514
F7.29188324970217
sS'giraffe'
p515
F8.39049553837028
sS'mgmt'
p516
F8.39049553837028
sS'schools'
p517
F5.68244533726807
sS'(usa'
p518
F8.39049553837028
sS'township'
p519
F8.39049553837028
sS'yourself'
p520
F8.39049553837028
sS'flame'
p521
F8.39049553837028
sS'silver'
p522
F8.39049553837028
sS'bank'
p523
F6.444585389314967
sS'bread'
p524
F7.29188324970217
sS'alex'
p525
F7.697348357810335
sS'loraine'
p526
F7.697348357810335
sS'abigail'
p527
F8.39049553837028
sS'lillian'
p528
F8.39049553837028
sS'opthalmalic'
p529
F8.39049553837028
sS'oshlag'
p530
F8.39049553837028
sS'l'
p531
F5.25500132244113
sS'detroit'
p532
F2.051901460167097
sS'choir'
p533
F6.444585389314967
sS'mcfarlane'
p534
F8.39049553837028
sS'victory'
p535
F6.0879104453762345
sS'fitness'
p536
F8.39049553837028
sS'side'
p537
F7.00420117725039
sS'bone'
p538
F8.39049553837028
sS'bond'
p539
F8.39049553837028
sS'financial'
p540
F7.29188324970217
sS'aoa'
p541
F8.39049553837028
sS'series'
p542
F8.39049553837028
sS'herdegen'
p543
F8.39049553837028
sS'allan'
p544
F8.39049553837028
sS'solution'
p545
F8.39049553837028
sS'ministering'
p546
F8.39049553837028
sS'nigerian'
p547
F8.39049553837028
sS'forgot'
p548
F8.39049553837028
sS'aids'
p549
F6.78105762593618
sS'dawn'
p550
F8.39049553837028
sS'herbert'
p551
F8.39049553837028
sS'muath'
p552
F8.39049553837028
sS'precollege'
p553
F7.697348357810335
sS'network'
p554
F5.023199708383806
sS'amandla'
p555
F8.39049553837028
sS'god'
p556
F3.6542970899757843
sS'tried'
p557
F8.39049553837028
sS'dewitt'
p558
F8.39049553837028
sS'diesel'
p559
F8.39049553837028
sS'timers'
p560
F8.39049553837028
sS'vessels'
p561
F7.697348357810335
sS'fellows'
p562
F8.39049553837028
sS'content'
p563
F8.39049553837028
sS'fellowship'
p564
F4.864135013754119
sS'encourage'
p565
F8.39049553837028
sS'millennium'
p566
F7.697348357810335
sS'medicine'
p567
F7.00420117725039
sS'shorebank'
p568
F8.39049553837028
sS'forth'
p569
F7.697348357810335
sS'everett'
p570
F8.39049553837028
sS'hogan'
p571
F8.39049553837028
sS'foundation'
p572
F2.4529593332878536
sS'arizona'
p573
F8.39049553837028
sS'turning'
p574
F8.39049553837028
sS'clarence'
p575
F7.697348357810335
sS'personal'
p576
F7.697348357810335
sS'u.s.'
p577
F5.7514382087550215
sS'peopleempowerment'
p578
F8.39049553837028
sS'eternal'
p579
F7.29188324970217
sS'sheer'
p580
F8.39049553837028
sS'free'
p581
F5.68244533726807
sS'fred'
p582
F7.697348357810335
sS'ancient'
p583
F7.29188324970217
sS'masjidunnur'
p584
F8.39049553837028
sS'lisa'
p585
F8.39049553837028
sS'westside'
p586
F6.598736069142225
sS'cornerstone'
p587
F6.78105762593618
sS'bates'
p588
F7.29188324970217
sS'gershenson'
p589
F8.39049553837028
sS'starts'
p590
F7.697348357810335
sS'cosmic'
p591
F7.29188324970217
sS'days'
p592
F7.29188324970217
sS'1115220606'
p593
F8.39049553837028
sS'locomotive'
p594
F7.697348357810335
sS'ministries'
p595
F3.1123808791397627
sS'richton'
p596
F8.39049553837028
sS'musicians'
p597
F7.697348357810335
sS'canterbury'
p598
F8.39049553837028
sS'incorporated'
p599
F4.726933892240633
sS'moving'
p600
F7.29188324970217
sS'r.'
p601
F8.39049553837028
sS'stewart'
p602
F8.39049553837028
sS'inspectors'
p603
F8.39049553837028
sS'montessori'
p604
F8.39049553837028
sS'artistry'
p605
F8.39049553837028
sS'nandis'
p606
F8.39049553837028
sS'hoop'
p607
F8.39049553837028
sS'revitalization'
p608
F8.39049553837028
sS'rank'
p609
F8.39049553837028
sS'hearing'
p610
F7.697348357810335
sS'production'
p611
F8.39049553837028
sS'178'
p612
F8.39049553837028
sS'pomegrante'
p613
F8.39049553837028
sS'173'
p614
F8.39049553837028
sS'speck'
p615
F8.39049553837028
sS'opendoor'
p616
F8.39049553837028
sS'basketball'
p617
F7.00420117725039
sS'service'
p618
F5.023199708383806
sS'jeffersonchalmers'
p619
F8.39049553837028
sS'top'
p620
F7.29188324970217
sS'engagement'
p621
F7.697348357810335
sS'girls'
p622
F6.19327096103406
sS'twisted'
p623
F8.39049553837028
sS'elevator'
p624
F7.697348357810335
sS'greektown'
p625
F8.39049553837028
sS'detroitwindsor'
p626
F7.697348357810335
sS'olde'
p627
F8.39049553837028
sS'too'
p628
F7.00420117725039
sS'miller'
p629
F8.39049553837028
sS'eva'
p630
F8.39049553837028
sS'john'
p631
F5.299453085011964
sS'ahavas'
p632
F8.39049553837028
sS'genesis'
p633
F6.78105762593618
sS'uawaec'
p634
F8.39049553837028
sS'urban'
p635
F4.8939879769038
sS'gye'
p636
F8.39049553837028
sS'rebuilders'
p637
F8.39049553837028
sS'enhancing'
p638
F8.39049553837028
sS'alonso'
p639
F8.39049553837028
sS'dequindre'
p640
F8.39049553837028
sS'gym'
p641
F7.697348357810335
sS'villages'
p642
F7.697348357810335
sS'albert'
p643
F7.697348357810335
sS'justcommunities'
p644
F8.39049553837028
sS'allenco'
p645
F8.39049553837028
sS'associaion'
p646
F8.39049553837028
sS'western'
p647
F7.697348357810335
sS'palsy'
p648
F8.39049553837028
sS'helen'
p649
F7.697348357810335
sS'impilo'
p650
F8.39049553837028
sS'techtown'
p651
F8.39049553837028
sS'mercy'
p652
F6.598736069142225
sS'guild'
p653
F6.598736069142225
sS'target'
p654
F8.39049553837028
sS'princeton'
p655
F8.39049553837028
sS'alrasool'
p656
F8.39049553837028
sS'tree'
p657
F6.444585389314967
sS'africanamericans'
p658
F8.39049553837028
sS'project'
p659
F4.726933892240633
sS'matter'
p660
F7.697348357810335
sS'solomon'
p661
F7.697348357810335
sS'expo'
p662
F8.39049553837028
sS'historical'
p663
F6.19327096103406
sS'eban'
p664
F8.39049553837028
sS'knights'
p665
F5.825546180908743
sS'seminary'
p666
F7.00420117725039
sS'whitestone'
p667
F8.39049553837028
sS'jochos'
p668
F8.39049553837028
sS'bridge'
p669
F7.29188324970217
sS'fashion'
p670
F8.39049553837028
sS'palace'
p671
F8.39049553837028
sS'boston'
p672
F7.29188324970217
sS'modern'
p673
F8.39049553837028
sS'keeper'
p674
F7.697348357810335
sS'mine'
p675
F8.39049553837028
sS'seed'
p676
F8.39049553837028
sS'trepel'
p677
F8.39049553837028
sS'ray'
p678
F7.697348357810335
sS'affairs'
p679
F6.444585389314967
sS'strength'
p680
F7.697348357810335
sS'academic'
p681
F7.29188324970217
sS'harper'
p682
F7.697348357810335
sS'capuchin'
p683
F7.29188324970217
sS'that'
p684
F7.697348357810335
sS'elegance'
p685
F8.39049553837028
sS'brandon'
p686
F8.39049553837028
sS'letthemcomembc'
p687
F8.39049553837028
sS'cotillion'
p688
F8.39049553837028
sS'welfarebenefits'
p689
F8.39049553837028
sS'hatch'
p690
F7.29188324970217
sS'rides'
p691
F8.39049553837028
sS'atkinson'
p692
F8.39049553837028
sS'davidson'
p693
F8.39049553837028
sS'bethune'
p694
F7.697348357810335
sS'evangelist'
p695
F8.39049553837028
sS'karmanos'
p696
F7.00420117725039
sS'luthern'
p697
F8.39049553837028
sS'transfiguration'
p698
F8.39049553837028
sS'victoria'
p699
F7.697348357810335
sS'ikotansa'
p700
F8.39049553837028
sS'kelly'
p701
F8.39049553837028
sS'gronin'
p702
F8.39049553837028
sS'cummings'
p703
F8.39049553837028
sS'letter'
p704
F8.39049553837028
sS'echoes'
p705
F8.39049553837028
sS'hartwick'
p706
F8.39049553837028
sS'philosophic'
p707
F8.39049553837028
sS'jean'
p708
F7.697348357810335
sS'reimbursement'
p709
F8.39049553837028
sS'adventists'
p710
F8.39049553837028
sS'don'
p711
F7.697348357810335
sS'consumers'
p712
F6.78105762593618
sS'neighborhoods'
p713
F7.29188324970217
sS'grove'
p714
F7.00420117725039
sS'corporate'
p715
F7.697348357810335
sS'medical'
p716
F5.299453085011964
sS'camp'
p717
F7.697348357810335
sS'alumni'
p718
F5.617906816130499
sS'rotary'
p719
F7.29188324970217
sS'epc'
p720
F8.39049553837028
sS'dorcas'
p721
F7.697348357810335
sS'tech'
p722
F7.697348357810335
sS'gabrys'
p723
F8.39049553837028
sS'enterprise'
p724
F7.29188324970217
sS'consumer'
p725
F7.697348357810335
sS'storks'
p726
F8.39049553837028
sS'advisory'
p727
F7.29188324970217
sS'poupard'
p728
F8.39049553837028
sS'aquatic'
p729
F8.39049553837028
sS'morton'
p730
F8.39049553837028
sS'lewis'
p731
F7.00420117725039
sS'random'
p732
F8.39049553837028
sS'horniker'
p733
F8.39049553837028
sS'chartered'
p734
F6.19327096103406
sS'radio'
p735
F7.00420117725039
sS'solutions'
p736
F5.500123780474115
sS'stepping'
p737
F8.39049553837028
sS'earth'
p738
F7.697348357810335
sS'damen'
p739
F8.39049553837028
sS'endowment'
p740
F5.90558888858228
sS'sharks'
p741
F8.39049553837028
sS'larson'
p742
F8.39049553837028
sS'northeast'
p743
F7.00420117725039
sS'divinity'
p744
F7.29188324970217
sS'cumberland'
p745
F8.39049553837028
sS'louise'
p746
F7.00420117725039
sS'ment'
p747
F8.39049553837028
sS'alandt'
p748
F8.39049553837028
sS'guidance'
p749
F7.00420117725039
sS'baitulislam'
p750
F8.39049553837028
sS'(hud)'
p751
F8.39049553837028
sS'sugar'
p752
F7.697348357810335
sS'bush'
p753
F8.39049553837028
sS'gideon'
p754
F8.39049553837028
sS'do'
p755
F7.29188324970217
sS'cecilia'
p756
F7.697348357810335
sS'wide'
p757
F7.697348357810335
sS'landmark'
p758
F8.39049553837028
sS'shiffman'
p759
F8.39049553837028
sS'de'
p760
F6.0879104453762345
sS'db'
p761
F8.39049553837028
sS'psychiatric'
p762
F8.39049553837028
sS'coast'
p763
F8.39049553837028
sS'watson'
p764
F8.39049553837028
sS'(dot)'
p765
F8.39049553837028
sS'(sba)'
p766
F8.39049553837028
sS'pallets'
p767
F8.39049553837028
sS'churches'
p768
F7.00420117725039
sS'report'
p769
F8.39049553837028
sS'dr'
p770
F8.39049553837028
sS'rademacher'
p771
F8.39049553837028
sS'rebirth'
p772
F7.29188324970217
sS'increasing'
p773
F8.39049553837028
sS'bar'
p774
F6.598736069142225
sS'17'
p775
F8.39049553837028
sS'fields'
p776
F7.697348357810335
sS'midamerica'
p777
F8.39049553837028
sS'fighters'
p778
F7.29188324970217
sS'northeastern'
p779
F8.39049553837028
sS'bay'
p780
F8.39049553837028
sS'emetc'
p781
F8.39049553837028
sS'bac'
p782
F8.39049553837028
sS'pacifist'
p783
F8.39049553837028
sS'analytical'
p784
F8.39049553837028
sS'steam'
p785
F8.39049553837028
sS'conant'
p786
F8.39049553837028
sS'fair'
p787
F6.598736069142225
sS'ggt'
p788
F8.39049553837028
sS'w.'
p789
F8.39049553837028
sS'followers'
p790
F8.39049553837028
sS'alterations'
p791
F8.39049553837028
sS'furever'
p792
F8.39049553837028
sS'nul'
p793
F8.39049553837028
sS'efik'
p794
F8.39049553837028
sS'cleo'
p795
F8.39049553837028
sS'hagar'
p796
F8.39049553837028
sS'iglesia'
p797
F6.78105762593618
sS'1115220508'
p798
F8.39049553837028
sS'westwayne'
p799
F8.39049553837028
sS'schaap'
p800
F8.39049553837028
sS'subject'
p801
F8.39049553837028
sS'02'
p802
F7.697348357810335
sS'amalgamated'
p803
F7.697348357810335
sS'almutanabbi'
p804
F8.39049553837028
sS'oneda'
p805
F7.697348357810335
sS'away'
p806
F8.39049553837028
sS'feline'
p807
F8.39049553837028
sS'pattersons'
p808
F8.39049553837028
sS'r'
p809
F5.25500132244113
sS'teaching'
p810
F7.29188324970217
sS'embroidery'
p811
F8.39049553837028
sS'mel'
p812
F8.39049553837028
sS'culturesource'
p813
F7.697348357810335
sS'occupational'
p814
F8.39049553837028
sS'bibleway'
p815
F6.598736069142225
sS'discovery'
p816
F8.39049553837028
sS'warrior'
p817
F8.39049553837028
sS'we'
p818
F5.99260026557191
sS'(moses)'
p819
F8.39049553837028
sS'wc'
p820
F8.39049553837028
sS'nortown'
p821
F8.39049553837028
sS'nature'
p822
F7.697348357810335
sS'wm'
p823
F8.39049553837028
sS'incarnation'
p824
F8.39049553837028
sS'missionay'
p825
F8.39049553837028
sS'southeast'
p826
F6.0879104453762345
sS'vernon'
p827
F8.39049553837028
sS'retirement'
p828
F7.697348357810335
sS'lewisite'
p829
F8.39049553837028
sS'drew'
p830
F7.697348357810335
sS'rccg'
p831
F8.39049553837028
sS'news'
p832
F7.697348357810335
sS'debt'
p833
F8.39049553837028
sS'communitylink'
p834
F8.39049553837028
sS'kitchen'
p835
F6.78105762593618
sS'aplus'
p836
F8.39049553837028
sS'country'
p837
F8.39049553837028
sS'against'
p838
F8.39049553837028
sS'players'
p839
F7.29188324970217
sS'herlong'
p840
F8.39049553837028
sS'planned'
p841
F8.39049553837028
sS'experencia'
p842
F8.39049553837028
sS'southeastern'
p843
F5.345973100646857
sS'con'
p844
F8.39049553837028
sS'prospect'
p845
F8.39049553837028
sS'ethel'
p846
F7.697348357810335
sS'repertory'
p847
F8.39049553837028
sS'wisdom'
p848
F8.39049553837028
sS'2nd'
p849
F7.29188324970217
sS'hygiene'
p850
F7.697348357810335
sS'wheatland'
p851
F8.39049553837028
sS'initiative'
p852
F5.68244533726807
sS'churcha'
p853
F8.39049553837028
sS'quinn'
p854
F8.39049553837028
sS'affiliated'
p855
F7.697348357810335
sS'majestic'
p856
F8.39049553837028
sS'springs'
p857
F8.39049553837028
sS'trust'
p858
F4.127815661328964
sS'northstar'
p859
F8.39049553837028
sS'telecommunications'
p860
F8.39049553837028
sS'speak'
p861
F8.39049553837028
sS'conference'
p862
F6.444585389314967
sS'lighthouse'
p863
F7.697348357810335
sS'housingcorporation'
p864
F8.39049553837028
sS'4410766000'
p865
F8.39049553837028
sS'sam'
p866
F8.39049553837028
sS'union'
p867
F4.401511491806006
sS'tiny'
p868
F8.39049553837028
sS'hamilton'
p869
F8.39049553837028
sS'commission'
p870
F6.311053996690444
sS'beer'
p871
F8.39049553837028
sS'spread'
p872
F7.697348357810335
sS'stadium'
p873
F8.39049553837028
sS'basic'
p874
F8.39049553837028
sS'collections'
p875
F8.39049553837028
sS'ann'
p876
F6.311053996690444
sS'riley'
p877
F7.697348357810335
sS'life'
p878
F4.0597621980839484
sS'families'
p879
F6.444585389314967
sS'mobilize.org'
p880
F8.39049553837028
sS'prosperous'
p881
F8.39049553837028
sS'eastern'
p882
F6.19327096103406
sS'youthville'
p883
F8.39049553837028
sS'irving'
p884
F8.39049553837028
sS'racquets'
p885
F8.39049553837028
sS'enterprises'
p886
F7.697348357810335
sS'snap'
p887
F8.39049553837028
sS'clairpointe'
p888
F8.39049553837028
sS'child'
p889
F6.0879104453762345
sS'mohammadia'
p890
F8.39049553837028
sS'oliverfoundation'
p891
F8.39049553837028
sS'motivity'
p892
F8.39049553837028
sS'commerce'
p893
F6.78105762593618
sS'save'
p894
F7.697348357810335
sS'sampson'
p895
F8.39049553837028
sS'redford'
p896
F7.00420117725039
sS'spartans'
p897
F8.39049553837028
sS'air'
p898
F7.00420117725039
sS'dept'
p899
F7.00420117725039
sS'airmen'
p900
F7.697348357810335
sS'slam'
p901
F8.39049553837028
sS'143fm'
p902
F8.39049553837028
sS'teachers'
p903
F6.311053996690444
sS'aid'
p904
F5.825546180908743
sS'voice'
p905
F7.29188324970217
sS'davenport'
p906
F8.39049553837028
sS'k'
p907
F7.00420117725039
sS'guardianship'
p908
F8.39049553837028
sS'kunsthalle'
p909
F8.39049553837028
sS'seven'
p910
F7.29188324970217
sS'fencing'
p911
F8.39049553837028
sS'metropolitan'
p912
F4.519294527462389
sS'best'
p913
F8.39049553837028
sS'dolores'
p914
F8.39049553837028
sS'is'
p915
F6.78105762593618
sS'organizationendowment'
p916
F8.39049553837028
sS'it'
p917
F6.311053996690444
sS'dresner'
p918
F8.39049553837028
sS'bizdom'
p919
F7.29188324970217
sS'ii'
p920
F5.99260026557191
sS'twinning'
p921
F8.39049553837028
sS'in'
p922
F3.5152982151691283
sS'uplift'
p923
F8.39049553837028
sS'topouzian'
p924
F8.39049553837028
sS'famine'
p925
F8.39049553837028
sS'trustee'
p926
F8.39049553837028
sS'memorial'
p927
F4.80697659991417
sS'recover'
p928
F8.39049553837028
sS'parish'
p929
F6.598736069142225
sS'make'
p930
F8.39049553837028
sS'nardin'
p931
F7.697348357810335
sS'complex'
p932
F7.00420117725039
sS'skillman'
p933
F7.29188324970217
sS'elliott'
p934
F8.39049553837028
sS'eskies'
p935
F8.39049553837028
sS'birkhill'
p936
F8.39049553837028
sS'independent'
p937
F6.78105762593618
sS'shindi'
p938
F8.39049553837028
sS'sings'
p939
F8.39049553837028
sS'theodore'
p940
F7.697348357810335
sS'ella'
p941
F7.697348357810335
sS'rail'
p942
F7.29188324970217
sS'epsilon'
p943
F7.697348357810335
sS'hand'
p944
F6.78105762593618
sS'liberties'
p945
F7.29188324970217
sS'renaissance'
p946
F6.444585389314967
sS'documents'
p947
F8.39049553837028
sS'amicus'
p948
F8.39049553837028
sS'communityinspiration'
p949
F8.39049553837028
sS'kim'
p950
F8.39049553837028
sS'arcus'
p951
F8.39049553837028
sS'hans'
p952
F8.39049553837028
sS'faiths'
p953
F8.39049553837028
sS'logy'
p954
F8.39049553837028
sS'altar'
p955
F8.39049553837028
sS'mcdougall'
p956
F8.39049553837028
sS'programs'
p957
F7.00420117725039
sS'morningside'
p958
F8.39049553837028
sS'charlie'
p959
F8.39049553837028
sS'brownell'
p960
F8.39049553837028
sS'supervisors'
p961
F7.697348357810335
sS'woodworkers'
p962
F8.39049553837028
sS'hispanic'
p963
F7.29188324970217
sS'pulliam'
p964
F8.39049553837028
sS'greatest'
p965
F8.39049553837028
sS'mother'
p966
F7.29188324970217
sS'hearts'
p967
F7.00420117725039
sS'the'
p968
F2.8730426419055726
sS'paradigm'
p969
F7.697348357810335
sS'cure'
p970
F8.39049553837028
sS'musical'
p971
F8.39049553837028
sS'lakeridge'
p972
F8.39049553837028
sS'unified'
p973
F8.39049553837028
sS'craftmans'
p974
F8.39049553837028
sS'birth'
p975
F7.697348357810335
sS'just'
p976
F6.78105762593618
sS'unemployment'
p977
F7.29188324970217
sS'athletic'
p978
F6.19327096103406
sS'gods'
p979
F5.446056559203839
sS'masons'
p980
F6.0879104453762345
sS'(va)'
p981
F8.39049553837028
sS'therapeutic'
p982
F8.39049553837028
sS'roderick'
p983
F8.39049553837028
sS'behold!'
p984
F8.39049553837028
sS'parks'
p985
F7.29188324970217
sS'human'
p986
F6.0879104453762345
sS'campbell'
p987
F7.00420117725039
sS'yes'
p988
F8.39049553837028
sS'rushing'
p989
F8.39049553837028
sS'elk'
p990
F8.39049553837028
sS'terrazzo'
p991
F8.39049553837028
sS'legion'
p992
F6.311053996690444
sS'royal'
p993
F6.78105762593618
sS'wright'
p994
F7.697348357810335
sS'bni'
p995
F8.39049553837028
sS'n'
p996
F6.311053996690444
sS'obedient'
p997
F8.39049553837028
sS'board'
p998
F6.78105762593618
sS'technological'
p999
F8.39049553837028
sS'east'
p1000
F5.394763264816289
sS'humanity'
p1001
F7.697348357810335
sS'elevation'
p1002
F8.39049553837028
sS'municipal'
p1003
F5.212441708022334
sS'commandery'
p1004
F8.39049553837028
sS'sailors'
p1005
F8.39049553837028
sS'elders'
p1006
F8.39049553837028
sS'survival'
p1007
F8.39049553837028
sS'gregorys'
p1008
F8.39049553837028
sS'arab'
p1009
F7.00420117725039
sS'cultural'
p1010
F5.68244533726807
sS'livingood'
p1011
F8.39049553837028
sS'mays'
p1012
F8.39049553837028
sS'performance'
p1013
F8.39049553837028
sS'cape'
p1014
F8.39049553837028
sS'unique'
p1015
F7.697348357810335
sS'ascending'
p1016
F8.39049553837028
sS'masonic'
p1017
F8.39049553837028
sS'pennies'
p1018
F8.39049553837028
sS'martha'
p1019
F8.39049553837028
sS'58'
p1020
F8.39049553837028
sS'gift'
p1021
F7.00420117725039
sS'57'
p1022
F8.39049553837028
sS'performing'
p1023
F6.311053996690444
sS'alice'
p1024
F7.00420117725039
sS'tuf&f'
p1025
F8.39049553837028
sS'offices'
p1026
F8.39049553837028
sS'splendor'
p1027
F8.39049553837028
sS'ruggles'
p1028
F8.39049553837028
sS'cochrans'
p1029
F8.39049553837028
sS'security'
p1030
F6.78105762593618
sS'pillar'
p1031
F7.697348357810335
sS'nnamdi'
p1032
F8.39049553837028
sS'right'
p1033
F7.697348357810335
sS'old'
p1034
F6.598736069142225
sS'moran'
p1035
F8.39049553837028
sS'people'
p1036
F5.299453085011964
sS'multicultural'
p1037
F8.39049553837028
sS'deaf'
p1038
F7.697348357810335
sS'consultants'
p1039
F7.697348357810335
sS'clubs'
p1040
F6.444585389314967
sS'productions'
p1041
F6.311053996690444
sS'election'
p1042
F8.39049553837028
sS'pentecostal'
p1043
F6.78105762593618
sS'strategic'
p1044
F8.39049553837028
sS'theatrical'
p1045
F7.697348357810335
sS'mcleod'
p1046
F8.39049553837028
sS'manor'
p1047
F7.00420117725039
sS'for'
p1048
F3.1919985071044543
sS'fourth'
p1049
F8.39049553837028
sS'bregi'
p1050
F8.39049553837028
sS'companions'
p1051
F8.39049553837028
sS'creative'
p1052
F5.99260026557191
sS'caribbean'
p1053
F7.29188324970217
sS'(ed)'
p1054
F8.39049553837028
sS'steps'
p1055
F8.39049553837028
sS'theological'
p1056
F7.697348357810335
sS'lees'
p1057
F8.39049553837028
sS'core'
p1058
F8.39049553837028
sS'columbus'
p1059
F7.00420117725039
sS'who'
p1060
F7.29188324970217
sS'bold'
p1061
F8.39049553837028
sS'marketing'
p1062
F8.39049553837028
sS'dental'
p1063
F7.00420117725039
sS'burn'
p1064
F8.39049553837028
sS'pentateuch'
p1065
F8.39049553837028
sS'brumit'
p1066
F8.39049553837028
sS'corp'
p1067
F4.9892981567081245
sS'architectural'
p1068
F8.39049553837028
sS'scarves'
p1069
F8.39049553837028
sS'post'
p1070
F7.29188324970217
sS'manufacturing'
p1071
F7.697348357810335
sS'marital'
p1072
F8.39049553837028
sS'properties'
p1073
F6.19327096103406
sS'phillip'
p1074
F7.697348357810335
sS'chapter'
p1075
F4.924759635570553
sS'faithway'
p1076
F8.39049553837028
sS'empowerment'
p1077
F5.7514382087550215
sS'acon'
p1078
F8.39049553837028
sS'citizens'
p1079
F6.598736069142225
sS'eggstraordinary'
p1080
F8.39049553837028
sS'intercultural'
p1081
F8.39049553837028
sS'o'
p1082
F5.212441708022334
sS'oba'
p1083
F8.39049553837028
sS'rosedale'
p1084
F6.311053996690444
sS'plus'
p1085
F8.39049553837028
sS'tyree'
p1086
F8.39049553837028
sS'revelation'
p1087
F7.29188324970217
sS'rehoboth'
p1088
F7.697348357810335
sS'osborn'
p1089
F8.39049553837028
sS'consulting'
p1090
F7.29188324970217
sS'pinpointe'
p1091
F8.39049553837028
sS'anointing'
p1092
F8.39049553837028
sS'gatherers'
p1093
F8.39049553837028
sS'presence'
p1094
F7.697348357810335
sS'civil'
p1095
F7.29188324970217
sS'schwartz'
p1096
F7.697348357810335
sS'handzonall'
p1097
F8.39049553837028
sS'mba'
p1098
F8.39049553837028
sS'mbc'
p1099
F7.697348357810335
sS'down'
p1100
F7.697348357810335
sS'laborers'
p1101
F7.697348357810335
sS'doctrine'
p1102
F8.39049553837028
sS'hospice'
p1103
F6.78105762593618
sS'rely'
p1104
F8.39049553837028
sS'beth'
p1105
F7.697348357810335
sS'fastbreaking'
p1106
F8.39049553837028
sS'support'
p1107
F6.311053996690444
sS'tennis'
p1108
F7.697348357810335
sS'naciones'
p1109
F8.39049553837028
sS'sovereign'
p1110
F7.697348357810335
sS'sunlight'
p1111
F8.39049553837028
sS'pye'
p1112
F8.39049553837028
sS'anderson'
p1113
F8.39049553837028
sS'conservation'
p1114
F7.29188324970217
sS'goodfellow'
p1115
F8.39049553837028
sS'way'
p1116
F5.617906816130499
sS'jane'
p1117
F7.00420117725039
sS'music'
p1118
F5.825546180908743
sS'wat'
p1119
F8.39049553837028
sS'asset'
p1120
F7.697348357810335
sS'dayspring'
p1121
F8.39049553837028
sS'creation'
p1122
F7.29188324970217
sS'amateur'
p1123
F8.39049553837028
sS'1525897877'
p1124
F8.39049553837028
sS'northrop'
p1125
F8.39049553837028
sS'tigers'
p1126
F8.39049553837028
sS'darul'
p1127
F8.39049553837028
sS'forever'
p1128
F8.39049553837028
sS'fore'
p1129
F8.39049553837028
sS'ford'
p1130
F5.132399000348798
sS'wireless'
p1131
F8.39049553837028
sS'heat'
p1132
F7.697348357810335
sS'beatitudes'
p1133
F8.39049553837028
sS'true'
p1134
F5.299453085011964
sS'mb1'
p1135
F8.39049553837028
sS'fort'
p1136
F7.697348357810335
sS'reset'
p1137
F8.39049553837028
sS'protestant'
p1138
F8.39049553837028
sS'isis'
p1139
F8.39049553837028
sS'happen'
p1140
F8.39049553837028
sS'rippling'
p1141
F8.39049553837028
sS'inside'
p1142
F8.39049553837028
sS'oakman'
p1143
F8.39049553837028
sS'bounds'
p1144
F8.39049553837028
sS'lovebaptist'
p1145
F8.39049553837028
sS'knooihuizen'
p1146
F8.39049553837028
sS'apostles'
p1147
F8.39049553837028
sS'vanguard'
p1148
F7.697348357810335
sS'dorian'
p1149
F8.39049553837028
sS'mtm'
p1150
F8.39049553837028
sS'mighty'
p1151
F7.697348357810335
sS'wentworth'
p1152
F8.39049553837028
sS'150'
p1153
F8.39049553837028
sS'juvenile'
p1154
F7.697348357810335
sS'medication'
p1155
F8.39049553837028
sS'midgett'
p1156
F7.697348357810335
sS'hamp'
p1157
F8.39049553837028
sS'huffines'
p1158
F8.39049553837028
sS'hvh'
p1159
F8.39049553837028
sS'thanksgiving'
p1160
F7.697348357810335
sS'scarab'
p1161
F7.697348357810335
sS'diamond'
p1162
F8.39049553837028
sS'prayer'
p1163
F5.446056559203839
sS'accounting'
p1164
F7.697348357810335
sS'ship'
p1165
F7.697348357810335
sS'widows'
p1166
F8.39049553837028
sS'check'
p1167
F8.39049553837028
sS'fraternal'
p1168
F7.697348357810335
sS'asantewaa'
p1169
F8.39049553837028
sS'vista'
p1170
F8.39049553837028
sS'chalfonte'
p1171
F8.39049553837028
sS'alhaqq'
p1172
F8.39049553837028
sS'no'
p1173
F6.78105762593618
sS'marys'
p1174
F7.697348357810335
sS'na'
p1175
F8.39049553837028
sS'fosters'
p1176
F8.39049553837028
sS'excel'
p1177
F8.39049553837028
sS'reality'
p1178
F8.39049553837028
sS'tim'
p1179
F8.39049553837028
sS'holding'
p1180
F7.29188324970217
sS'digital'
p1181
F7.29188324970217
sS'test'
p1182
F8.39049553837028
sS'jenkins'
p1183
F8.39049553837028
sS'nu'
p1184
F8.39049553837028
sS'tawheed'
p1185
F8.39049553837028
sS'evergreen'
p1186
F7.697348357810335
sS'picture'
p1187
F8.39049553837028
sS'brothers'
p1188
F6.78105762593618
sS'irma'
p1189
F8.39049553837028
sS'masco'
p1190
F8.39049553837028
sS'welcome'
p1191
F8.39049553837028
sS'outreach'
p1192
F4.073007424833969
sS'modelt'
p1193
F8.39049553837028
sS'parenthood'
p1194
F8.39049553837028
sS'genealogical'
p1195
F7.29188324970217
sS'muslims'
p1196
F8.39049553837028
sS'award'
p1197
F8.39049553837028
sS'pulte'
p1198
F8.39049553837028
sS'muslim'
p1199
F7.29188324970217
sS'neuroscience'
p1200
F8.39049553837028
sS'omega'
p1201
F6.598736069142225
sS'senior'
p1202
F5.617906816130499
sS'jones'
p1203
F7.29188324970217
sS'nxt'
p1204
F8.39049553837028
sS'dulce'
p1205
F8.39049553837028
sS'abraham'
p1206
F8.39049553837028
sS'maltese'
p1207
F7.697348357810335
sS'growcock'
p1208
F8.39049553837028
sS'annuity'
p1209
F8.39049553837028
sS'ogden'
p1210
F8.39049553837028
sS'ecoworks'
p1211
F8.39049553837028
sS'yacht'
p1212
F6.78105762593618
sS'together'
p1213
F6.78105762593618
sS'purple'
p1214
F8.39049553837028
sS'loyal'
p1215
F8.39049553837028
sS'floyd'
p1216
F8.39049553837028
sS'time'
p1217
F7.29188324970217
sS'protostar'
p1218
F8.39049553837028
sS'hollitech'
p1219
F8.39049553837028
sS'neighbors'
p1220
F7.00420117725039
sS'anglican'
p1221
F8.39049553837028
sS'coach'
p1222
F8.39049553837028
sS'shelters'
p1223
F8.39049553837028
sS'grosfeld'
p1224
F7.697348357810335
sS'dance'
p1225
F7.00420117725039
sS'global'
p1226
F6.598736069142225
sS'alternatives'
p1227
F7.697348357810335
sS'focus'
p1228
F6.78105762593618
sS'laura'
p1229
F8.39049553837028
sS'frenzell'
p1230
F8.39049553837028
sS'mile'
p1231
F6.598736069142225
sS'marion'
p1232
F7.697348357810335
sS'149w'
p1233
F8.39049553837028
sS'leche'
p1234
F8.39049553837028
sS'33f047006'
p1235
F8.39049553837028
sS'abundant'
p1236
F7.00420117725039
sS'vet'
p1237
F8.39049553837028
sS'ware'
p1238
F8.39049553837028
sS'praises'
p1239
F8.39049553837028
sS'dewayne'
p1240
F8.39049553837028
sS'comunidad'
p1241
F8.39049553837028
sS'hamlett'
p1242
F8.39049553837028
sS'freelance'
p1243
F8.39049553837028
sS'show'
p1244
F7.697348357810335
sS'father'
p1245
F7.697348357810335
sS'editors'
p1246
F8.39049553837028
sS'lotus'
p1247
F8.39049553837028
sS'foursquare'
p1248
F8.39049553837028
sS'promoting'
p1249
F8.39049553837028
sS'carpenters'
p1250
F7.697348357810335
sS'rhythm'
p1251
F8.39049553837028
sS'marks'
p1252
F8.39049553837028
sS'(dhs)'
p1253
F8.39049553837028
sS'100995'
p1254
F8.39049553837028
sS'veterans'
p1255
F5.557282194314064
sS'southwest'
p1256
F5.299453085011964
sS'division'
p1257
F7.697348357810335
sS'protective'
p1258
F6.598736069142225
sS'alumnae'
p1259
F8.39049553837028
sS'federation'
p1260
F4.629295422676718
sS'advantage'
p1261
F8.39049553837028
sS'hannah'
p1262
F8.39049553837028
sS'innovation'
p1263
F7.29188324970217
sS'hannan'
p1264
F8.39049553837028
sS'choice'
p1265
F7.697348357810335
sS'pablo'
p1266
F8.39049553837028
sS'congregation'
p1267
F7.29188324970217
sS'anonymous'
p1268
F8.39049553837028
sS'blast'
p1269
F8.39049553837028
sS'coon'
p1270
F8.39049553837028
sS'sonora'
p1271
F7.697348357810335
sS'3202'
p1272
F8.39049553837028
sS'henrietta'
p1273
F8.39049553837028
sS'hour'
p1274
F7.697348357810335
sS'chaldean'
p1275
F8.39049553837028
sS'the@detroit'
p1276
F8.39049553837028
sS'excellency'
p1277
F8.39049553837028
sS'cleaners'
p1278
F8.39049553837028
sS'brother'
p1279
F8.39049553837028
sS'corinth'
p1280
F8.39049553837028
sS'mmsdc'
p1281
F8.39049553837028
sS'parker'
p1282
F8.39049553837028
sS'p'
p1283
F5.68244533726807
sS'bikes'
p1284
F8.39049553837028
sS'excellence'
p1285
F6.311053996690444
sS'harmon'
p1286
F8.39049553837028
sS'team'
p1287
F6.19327096103406
sS'eagles'
p1288
F6.78105762593618
sS'foley'
p1289
F7.697348357810335
sS'spiritual'
p1290
F5.90558888858228
sS'revolution'
p1291
F7.697348357810335
sS'thinkers'
p1292
F8.39049553837028
sS'temples'
p1293
F8.39049553837028
sS'1034412'
p1294
F8.39049553837028
sS'georgine'
p1295
F8.39049553837028
sS'aflcio'
p1296
F7.00420117725039
sS'blithesome'
p1297
F8.39049553837028
sS'inland'
p1298
F8.39049553837028
sS'roosevelt'
p1299
F8.39049553837028
sS'portfolio'
p1300
F8.39049553837028
sS'augustaross'
p1301
F8.39049553837028
sS'run'
p1302
F7.697348357810335
sS'(doc)'
p1303
F8.39049553837028
sS'jamison'
p1304
F8.39049553837028
sS'port'
p1305
F7.29188324970217
sS'shaw'
p1306
F8.39049553837028
sS'merciful'
p1307
F8.39049553837028
sS'assistance'
p1308
F7.00420117725039
sS'02033090722094'
p1309
F8.39049553837028
sS'pallard'
p1310
F8.39049553837028
sS'oes'
p1311
F8.39049553837028
sS'evergreenlahserseveneight'
p1312
F8.39049553837028
sS'w.k.'
p1313
F8.39049553837028
sS'ministr'
p1314
F8.39049553837028
sS'pine'
p1315
F8.39049553837028
sS'international'
p1316
F3.4417356479921115
sS'pershing'
p1317
F8.39049553837028
sS'eliseo'
p1318
F8.39049553837028
sS'ministy'
p1319
F8.39049553837028
sS'jerico'
p1320
F8.39049553837028
sS'supporting'
p1321
F8.39049553837028
sS'processing'
p1322
F8.39049553837028
sS'transportation'
p1323
F6.19327096103406
sS'guardian'
p1324
F7.697348357810335
sS'funds)'
p1325
F8.39049553837028
sS'handyman'
p1326
F8.39049553837028
sS'water'
p1327
F7.697348357810335
sS'pewabic'
p1328
F7.29188324970217
sS'holistic'
p1329
F8.39049553837028
sS'courville'
p1330
F7.697348357810335
sS'riverbend'
p1331
F8.39049553837028
sS'tnl'
p1332
F8.39049553837028
sS'alone'
p1333
F8.39049553837028
sS'teacher'
p1334
F6.444585389314967
sS'change'
p1335
F6.78105762593618
sS'benson'
p1336
F7.697348357810335
sS'boy'
p1337
F8.39049553837028
sS'arcadia'
p1338
F8.39049553837028
sS'annie'
p1339
F8.39049553837028
sS'redemption'
p1340
F7.697348357810335
sS'institute'
p1341
F4.561854141881184
sS'petersen'
p1342
F8.39049553837028
sS'lancaster'
p1343
F8.39049553837028
sS'dublin'
p1344
F8.39049553837028
sS'timbuktu'
p1345
F8.39049553837028
sS'firemen'
p1346
F8.39049553837028
sS'franklin'
p1347
F8.39049553837028
sS'resonance'
p1348
F8.39049553837028
sS'studies'
p1349
F7.00420117725039
sS'doris'
p1350
F7.697348357810335
sS'beautiful'
p1351
F8.39049553837028
sS'southfield'
p1352
F7.29188324970217
sS'love'
p1353
F4.458669905645954
sS'retiree'
p1354
F5.99260026557191
sS'morals'
p1355
F8.39049553837028
sS'defer'
p1356
F8.39049553837028
sS'hopeful'
p1357
F8.39049553837028
sS'1051770'
p1358
F8.39049553837028
sS'peer'
p1359
F8.39049553837028
sS'odditorium'
p1360
F8.39049553837028
sS'steppers'
p1361
F8.39049553837028
sS'1st'
p1362
F8.39049553837028
sS'lansing'
p1363
F8.39049553837028
sS'fbo'
p1364
F5.90558888858228
sS'crisis'
p1365
F8.39049553837028
sS'market'
p1366
F6.598736069142225
sS'elmwood'
p1367
F7.697348357810335
sS'rosae'
p1368
F7.697348357810335
sS'franco'
p1369
F8.39049553837028
sS'working'
p1370
F7.00420117725039
sS'positive'
p1371
F7.697348357810335
sS'give'
p1372
F8.39049553837028
sS'driker'
p1373
F8.39049553837028
sS'sports'
p1374
F6.0879104453762345
sS'vineyard'
p1375
F8.39049553837028
sS'rodriguez'
p1376
F8.39049553837028
sS'live'
p1377
F6.598736069142225
sS'going'
p1378
F7.697348357810335
sS'bender'
p1379
F8.39049553837028
sS'films'
p1380
F8.39049553837028
sS'believing'
p1381
F7.697348357810335
sS'michigans'
p1382
F7.29188324970217
sS'prep'
p1383
F8.39049553837028
sS'today'
p1384
F7.29188324970217
sS'madeline'
p1385
F8.39049553837028
sS'bennett'
p1386
F8.39049553837028
sS'39'
p1387
F8.39049553837028
sS'said'
p1388
F8.39049553837028
sS'club'
p1389
F4.263361153325189
sS'share'
p1390
F8.39049553837028
sS'chocolate'
p1391
F8.39049553837028
sS'downtown'
p1392
F6.78105762593618
sS'sierra'
p1393
F8.39049553837028
sS'authocefalic'
p1394
F8.39049553837028
sS'everywhere'
p1395
F8.39049553837028
sS'virtue'
p1396
F8.39049553837028
sS'savior'
p1397
F8.39049553837028
sS'olive'
p1398
F7.29188324970217
sS'prophecy'
p1399
F8.39049553837028
sS'effort'
p1400
F7.697348357810335
sS'riders'
p1401
F7.29188324970217
sS'insights'
p1402
F8.39049553837028
sS'organizations'
p1403
F7.697348357810335
sS'sleep'
p1404
F8.39049553837028
sS'skaters'
p1405
F8.39049553837028
sS'ibo'
p1406
F8.39049553837028
sS'julius'
p1407
F8.39049553837028
sS'soul'
p1408
F7.00420117725039
sS'mukarram'
p1409
F7.697348357810335
sS'soup'
p1410
F7.00420117725039
sS'printing'
p1411
F7.697348357810335
sS'luella'
p1412
F8.39049553837028
sS'growing'
p1413
F7.697348357810335
sS'making'
p1414
F7.697348357810335
sS'gfbc'
p1415
F8.39049553837028
sS'roundtable'
p1416
F7.697348357810335
sS'heart'
p1417
F6.0879104453762345
sS'portals'
p1418
F8.39049553837028
sS'0515'
p1419
F8.39049553837028
sS'nursing'
p1420
F7.29188324970217
sS'kenneth'
p1421
F8.39049553837028
sS'awesome'
p1422
F8.39049553837028
sS'newsletters'
p1423
F8.39049553837028
sS'smyrna'
p1424
F8.39049553837028
sS'agent'
p1425
F8.39049553837028
sS'locks'
p1426
F8.39049553837028
sS'nephrologists'
p1427
F8.39049553837028
sS'council'
p1428
F4.561854141881184
sS'echos'
p1429
F8.39049553837028
sS'reed'
p1430
F8.39049553837028
sS'penuel'
p1431
F8.39049553837028
sS'clothing'
p1432
F8.39049553837028
sS'abayomi'
p1433
F7.697348357810335
sS'pink'
p1434
F8.39049553837028
sS'arbor'
p1435
F8.39049553837028
sS'winter'
p1436
F8.39049553837028
sS'sidney'
p1437
F8.39049553837028
sS'2227'
p1438
F8.39049553837028
sS'mike'
p1439
F8.39049553837028
sS'alzheimers'
p1440
F8.39049553837028
sS'dyke'
p1441
F8.39049553837028
sS'1'
p1442
F6.444585389314967
sS'vital'
p1443
F8.39049553837028
sS'cardinal'
p1444
F8.39049553837028
sS's.'
p1445
F7.697348357810335
sS'pure'
p1446
F6.78105762593618
sS'endorsement'
p1447
F8.39049553837028
sS'coleman'
p1448
F7.697348357810335
sS'eight'
p1449
F8.39049553837028
sS'michigan'
p1450
F2.893327313077078
sS'economy'
p1451
F8.39049553837028
sS'loaves'
p1452
F8.39049553837028
sS'criminal'
p1453
F8.39049553837028
sS'bethel'
p1454
F6.444585389314967
sS'nell'
p1455
F8.39049553837028
sS'horizon'
p1456
F8.39049553837028
sS'alger'
p1457
F8.39049553837028
sS'may'
p1458
F7.697348357810335
sS'max'
p1459
F8.39049553837028
sS'comerica'
p1460
F7.29188324970217
sS'southern'
p1461
F8.39049553837028
sS'wac'
p1462
F8.39049553837028
sS'010194'
p1463
F8.39049553837028
sS'149'
p1464
F8.39049553837028
sS'islamic'
p1465
F5.99260026557191
sS'mac'
p1466
F8.39049553837028
sS'produce'
p1467
F7.697348357810335
sS'mae'
p1468
F7.697348357810335
sS'date'
p1469
F8.39049553837028
sS'heroes'
p1470
F8.39049553837028
sS'data'
p1471
F7.29188324970217
sS'eighth'
p1472
F8.39049553837028
sS'man'
p1473
F7.00420117725039
sS'insideout'
p1474
F7.697348357810335
sS'40625176215483'
p1475
F8.39049553837028
sS'rollie'
p1476
F8.39049553837028
sS'johnson'
p1477
F7.29188324970217
sS'rachmale'
p1478
F8.39049553837028
sS'ss'
p1479
F7.697348357810335
sS'sr'
p1480
F7.29188324970217
sS'futures'
p1481
F8.39049553837028
sS'omankane'
p1482
F8.39049553837028
sS'st'
p1483
F4.231612455010608
sS'galatian'
p1484
F8.39049553837028
sS'block'
p1485
F6.78105762593618
sS'rnational'
p1486
F8.39049553837028
sS'african'
p1487
F5.7514382087550215
sS'nect'
p1488
F7.29188324970217
sS'tutoring'
p1489
F7.697348357810335
sS'talk'
p1490
F7.697348357810335
sS'miracles'
p1491
F7.00420117725039
sS'sority'
p1492
F8.39049553837028
sS'breaking'
p1493
F7.697348357810335
sS'shield'
p1494
F7.00420117725039
sS'foreclosure'
p1495
F8.39049553837028
sS'indeed'
p1496
F8.39049553837028
sS'michcon'
p1497
F8.39049553837028
sS'midnight'
p1498
F7.697348357810335
sS'writers'
p1499
F8.39049553837028
sS'(dbcfsn)'
p1500
F8.39049553837028
sS'professors'
p1501
F7.697348357810335
sS'amazano'
p1502
F8.39049553837028
sS'terrace'
p1503
F7.697348357810335
sS'peterson'
p1504
F8.39049553837028
sS'still'
p1505
F8.39049553837028
sS'irene'
p1506
F8.39049553837028
sS'worship'
p1507
F6.444585389314967
sS'greenfield'
p1508
F7.697348357810335
sS'accepted'
p1509
F6.311053996690444
sS'group'
p1510
F5.023199708383806
sS'wallace'
p1511
F8.39049553837028
sS'willow'
p1512
F8.39049553837028
sS'conquerors'
p1513
F8.39049553837028
sS'civic'
p1514
F7.29188324970217
sS'yorkshire'
p1515
F8.39049553837028
sS'coaching'
p1516
F8.39049553837028
sS'creations'
p1517
F8.39049553837028
sS'bagley'
p1518
F7.697348357810335
sS'policy'
p1519
F7.697348357810335
sS'krainz'
p1520
F8.39049553837028
sS'sok'
p1521
F8.39049553837028
sS'texas'
p1522
F8.39049553837028
sS'non'
p1523
F5.825546180908743
sS'within'
p1524
F8.39049553837028
sS'wesco'
p1525
F8.39049553837028
sS'finance'
p1526
F7.29188324970217
sS'conservatory'
p1527
F8.39049553837028
sS'moms'
p1528
F7.697348357810335
sS'irrv'
p1529
F6.78105762593618
sS'hugs'
p1530
F7.697348357810335
sS'foundaton'
p1531
F8.39049553837028
sS'flinn'
p1532
F7.697348357810335
sS'nation'
p1533
F7.29188324970217
sS'lukes'
p1534
F8.39049553837028
sS'rezolia'
p1535
F8.39049553837028
sS'touching'
p1536
F8.39049553837028
sS'dpoa'
p1537
F8.39049553837028
sS'cheetah'
p1538
F8.39049553837028
sS'not'
p1539
F7.29188324970217
sS'now'
p1540
F7.697348357810335
sS'hall'
p1541
F6.19327096103406
sS'eleemosynary'
p1542
F8.39049553837028
sS'equality'
p1543
F7.29188324970217
sS'name'
p1544
F8.39049553837028
sS'opera'
p1545
F7.697348357810335
sS'james'
p1546
F5.68244533726807
sS'drop'
p1547
F8.39049553837028
sS'kern'
p1548
F8.39049553837028
sS'gunnard'
p1549
F8.39049553837028
sS'coveant'
p1550
F8.39049553837028
sS'fisherman'
p1551
F8.39049553837028
sS'rock'
p1552
F5.825546180908743
sS'spiritualist'
p1553
F8.39049553837028
sS'creature'
p1554
F8.39049553837028
sS'butzel'
p1555
F8.39049553837028
sS'el'
p1556
F7.697348357810335
sS'bridging'
p1557
F7.29188324970217
sS'harambeebuilding'
p1558
F8.39049553837028
sS'whosoever'
p1559
F8.39049553837028
sS'ed'
p1560
F8.39049553837028
sS'breakthrough'
p1561
F7.697348357810335
sS'gegax'
p1562
F8.39049553837028
sS'lsodance'
p1563
F8.39049553837028
sS'122101'
p1564
F8.39049553837028
sS'year'
p1565
F8.39049553837028
sS'assumption'
p1566
F7.697348357810335
sS'girl'
p1567
F7.697348357810335
sS'sunrise'
p1568
F8.39049553837028
sS'elizabeth'
p1569
F7.697348357810335
sS'living'
p1570
F4.924759635570553
sS'jackson'
p1571
F7.29188324970217
sS'profit'
p1572
F6.0879104453762345
sS'lawyers'
p1573
F7.697348357810335
sS'factory'
p1574
F8.39049553837028
sS'perse'
p1575
F8.39049553837028
sS'looking'
p1576
F7.697348357810335
sS'ymca'
p1577
F7.00420117725039
sS'internet'
p1578
F8.39049553837028
sS'modcar'
p1579
F8.39049553837028
sS'sweet'
p1580
F7.29188324970217
sS'saccaro'
p1581
F8.39049553837028
sS'assurance'
p1582
F8.39049553837028
sS'eagle'
p1583
F7.697348357810335
sS'mims'
p1584
F8.39049553837028
sS'joiners'
p1585
F8.39049553837028
sS'philharmonic'
p1586
F7.697348357810335
sS'quran'
p1587
F8.39049553837028
sS'seventh'
p1588
F8.39049553837028
sS'cart'
p1589
F8.39049553837028
sS'greenacreswoodward'
p1590
F8.39049553837028
sS'california'
p1591
F8.39049553837028
sS'rebel'
p1592
F8.39049553837028
sS'carl'
p1593
F8.39049553837028
sS'charties'
p1594
F8.39049553837028
sS'keith'
p1595
F7.697348357810335
sS'whittier'
p1596
F8.39049553837028
sS'care'
p1597
F4.347444270535729
sS'training'
p1598
F5.68244533726807
sS'contemplation'
p1599
F8.39049553837028
sS'carnival'
p1600
F8.39049553837028
sS'ministry'
p1601
F4.478472532942134
sS'idiane'
p1602
F7.697348357810335
sS'011000357249'
p1603
F8.39049553837028
sS'transition'
p1604
F7.697348357810335
sS'kingdoms'
p1605
F8.39049553837028
sS'motion'
p1606
F7.697348357810335
sS'grand'
p1607
F7.29188324970217
sS'stafford'
p1608
F8.39049553837028
sS'place'
p1609
F6.0879104453762345
sS'generations'
p1610
F7.697348357810335
sS'esperanza'
p1611
F8.39049553837028
sS'u4'
p1612
F8.39049553837028
sS'nonprofit'
p1613
F4.956508333885133
sS'pointe'
p1614
F6.598736069142225
sS'copperhill'
p1615
F8.39049553837028
sS'think'
p1616
F8.39049553837028
sS'lambda'
p1617
F6.444585389314967
sS'blind'
p1618
F7.697348357810335
sS'xi'
p1619
F8.39049553837028
sS'saving'
p1620
F7.697348357810335
sS'televangelization'
p1621
F8.39049553837028
sS'stevens'
p1622
F8.39049553837028
sS'deliveranceministries'
p1623
F8.39049553837028
sS'tolby'
p1624
F8.39049553837028
sS'one'
p1625
F5.90558888858228
sS'chartible'
p1626
F8.39049553837028
sS'soaring'
p1627
F8.39049553837028
sS'sheard'
p1628
F8.39049553837028
sS'americans'
p1629
F7.00420117725039
sS'specifically'
p1630
F8.39049553837028
sS'vote'
p1631
F7.29188324970217
sS'grandlodge'
p1632
F8.39049553837028
sS'ways'
p1633
F8.39049553837028
sS'open'
p1634
F6.598736069142225
sS'tomorrow'
p1635
F7.697348357810335
sS'dole'
p1636
F8.39049553837028
sS'engineer'
p1637
F8.39049553837028
sS'gertrude'
p1638
F8.39049553837028
sS'city'
p1639
F4.458669905645954
sS'little'
p1640
F6.311053996690444
sS'boulevard'
p1641
F7.29188324970217
sS'district'
p1642
F5.99260026557191
sS'okpe'
p1643
F8.39049553837028
sS'apostilic'
p1644
F8.39049553837028
sS'fmt'
p1645
F8.39049553837028
sS'breed'
p1646
F7.00420117725039
sS'imam'
p1647
F7.697348357810335
sS'(pime)'
p1648
F8.39049553837028
sS'2'
p1649
F6.598736069142225
sS'alfred'
p1650
F8.39049553837028
sS'convention'
p1651
F7.00420117725039
sS'white'
p1652
F8.39049553837028
sS'zonta'
p1653
F6.78105762593618
sS'williams'
p1654
F5.99260026557191
sS'eyes'
p1655
F8.39049553837028
sS'starfish'
p1656
F8.39049553837028
sS'cope'
p1657
F8.39049553837028
sS'proving'
p1658
F8.39049553837028
sS'flowery'
p1659
F7.697348357810335
sS'hartford'
p1660
F7.697348357810335
sS'specialists'
p1661
F8.39049553837028
sS'grosse'
p1662
F6.444585389314967
sS'than'
p1663
F8.39049553837028
sS'population'
p1664
F7.697348357810335
sS'professionals'
p1665
F7.00420117725039
sS'television'
p1666
F7.00420117725039
sS'12'
p1667
F8.39049553837028
sS'nathan'
p1668
F8.39049553837028
sS'effective'
p1669
F7.697348357810335
sS'sailing'
p1670
F8.39049553837028
sS'16'
p1671
F8.39049553837028
sS'grammer'
p1672
F8.39049553837028
sS'maybury'
p1673
F8.39049553837028
sS'carefirst'
p1674
F8.39049553837028
sS'crossroads'
p1675
F7.00420117725039
sS'midtown'
p1676
F6.598736069142225
sS'future'
p1677
F6.311053996690444
sS'optimist'
p1678
F6.444585389314967
sS'adamswilliams'
p1679
F8.39049553837028
sS'orgs'
p1680
F7.697348357810335
sS'marines'
p1681
F8.39049553837028
sS'umuele'
p1682
F8.39049553837028
sS'oath'
p1683
F8.39049553837028
sS'and'
p1684
F3.019857510242617
sS'gathering'
p1685
F7.697348357810335
sS'san'
p1686
F7.697348357810335
sS'buddharam'
p1687
F8.39049553837028
sS'sab'
p1688
F8.39049553837028
sS'pro'
p1689
F7.697348357810335
sS'greyhound'
p1690
F8.39049553837028
sS'head'
p1691
F7.00420117725039
sS'alley'
p1692
F7.697348357810335
sS'voices'
p1693
F6.78105762593618
sS'winifred'
p1694
F8.39049553837028
sS'episcopal'
p1695
F5.617906816130499
sS'say'
p1696
F8.39049553837028
sS'loki'
p1697
F8.39049553837028
sS'thorp'
p1698
F8.39049553837028
sS'allen'
p1699
F8.39049553837028
sS'breakfast'
p1700
F8.39049553837028
sS'madrasha'
p1701
F8.39049553837028
sS'windsor'
p1702
F7.00420117725039
sS'lamb'
p1703
F8.39049553837028
sS'23838'
p1704
F8.39049553837028
sS'prosperity'
p1705
F8.39049553837028
sS'nebo'
p1706
F8.39049553837028
sS'timothy'
p1707
F7.697348357810335
sS'warriors'
p1708
F7.29188324970217
sS'veteran'
p1709
F7.697348357810335
sS'consortium'
p1710
F7.697348357810335
sS'iron'
p1711
F8.39049553837028
sS'jefferson'
p1712
F6.444585389314967
sS'take'
p1713
F8.39049553837028
sS'nazareth'
p1714
F8.39049553837028
sS'bailey'
p1715
F8.39049553837028
sS'sorority'
p1716
F5.500123780474115
sS'mayer'
p1717
F8.39049553837028
sS'edrington'
p1718
F8.39049553837028
sS'dkld'
p1719
F8.39049553837028
sS'(idf)'
p1720
F8.39049553837028
sS'theatre'
p1721
F5.68244533726807
sS'ukrainian'
p1722
F7.697348357810335
sS'track'
p1723
F6.444585389314967
sS'price'
p1724
F8.39049553837028
sS'hosanna'
p1725
F8.39049553837028
sS'pharaoh'
p1726
F8.39049553837028
sS'firestone'
p1727
F8.39049553837028
sS'visitors'
p1728
F8.39049553837028
sS'beta'
p1729
F6.311053996690444
sS'tammie'
p1730
F8.39049553837028
sS'freshman'
p1731
F8.39049553837028
sS'america'
p1732
F4.726933892240633
sS'manhood'
p1733
F8.39049553837028
sS'hardships'
p1734
F8.39049553837028
sS'queens'
p1735
F8.39049553837028
sS'jazzykat'
p1736
F8.39049553837028
sS'lawn'
p1737
F8.39049553837028
sS'democratic'
p1738
F8.39049553837028
sS'maranatha'
p1739
F8.39049553837028
sS'foot'
p1740
F8.39049553837028
sS'herrick'
p1741
F7.697348357810335
sS'drive'
p1742
F7.00420117725039
sS'elsabbagh'
p1743
F8.39049553837028
sS'sadeq'
p1744
F8.39049553837028
sS'catchcaring'
p1745
F8.39049553837028
sS'professional'
p1746
F6.598736069142225
sS'icritic'
p1747
F8.39049553837028
sS'lindsay'
p1748
F8.39049553837028
sS'sigma'
p1749
F5.825546180908743
sS'luz'
p1750
F8.39049553837028
sS'shop'
p1751
F7.29188324970217
sS'madison'
p1752
F8.39049553837028
sS'claver'
p1753
F6.598736069142225
sS'german'
p1754
F8.39049553837028
sS'workshops'
p1755
F8.39049553837028
sS'contemporary'
p1756
F7.00420117725039
sS'merit'
p1757
F8.39049553837028
sS'elevate'
p1758
F8.39049553837028
sS'spaces'
p1759
F7.697348357810335
sS'shoe'
p1760
F8.39049553837028
sS'southwestern'
p1761
F7.697348357810335
sS'lay'
p1762
F8.39049553837028
sS'chruch'
p1763
F8.39049553837028
sS'fifth'
p1764
F8.39049553837028
sS'ground'
p1765
F7.00420117725039
sS'bandurist'
p1766
F8.39049553837028
sS'slow'
p1767
F8.39049553837028
sS'slop'
p1768
F8.39049553837028
sS'rosemarys'
p1769
F8.39049553837028
sS'hopeworks'
p1770
F8.39049553837028
sS'tweddle'
p1771
F8.39049553837028
sS'treasure'
p1772
F7.697348357810335
sS'saints'
p1773
F7.29188324970217
sS'crime'
p1774
F7.00420117725039
sS'shakespearean'
p1775
F7.00420117725039
sS'wood'
p1776
F8.39049553837028
sS'black'
p1777
F4.80697659991417
sS'hockey'
p1778
F8.39049553837028
sS'kadesh'
p1779
F8.39049553837028
sS'treasury'
p1780
F7.29188324970217
sS'thompson'
p1781
F6.78105762593618
sS'alcoholism'
p1782
F8.39049553837028
sS'awareness'
p1783
F7.29188324970217
sS'presbyterian'
p1784
F5.90558888858228
sS'africanamerican'
p1785
F8.39049553837028
sS'get'
p1786
F7.00420117725039
sS'hillel'
p1787
F7.697348357810335
sS'winters'
p1788
F8.39049553837028
sS'jazz'
p1789
F7.29188324970217
sS'counsel'
p1790
F7.697348357810335
sS'mission'
p1791
F5.299453085011964
sS'upgrade'
p1792
F8.39049553837028
sS'theta'
p1793
F5.99260026557191
sS'gen'
p1794
F8.39049553837028
sS'firstborn'
p1795
F8.39049553837028
sS'krishna'
p1796
F8.39049553837028
sS'resource'
p1797
F5.99260026557191
sS'gratiot'
p1798
F7.697348357810335
sS'seldon'
p1799
F8.39049553837028
sS'redeemed'
p1800
F7.00420117725039
sS'skyline'
p1801
F8.39049553837028
sS'embassy'
p1802
F8.39049553837028
sS'scott'
p1803
F8.39049553837028
sS'where'
p1804
F7.697348357810335
sS'uw'
p1805
F6.598736069142225
sS'vision'
p1806
F6.0879104453762345
sS'seay'
p1807
F8.39049553837028
sS'cogic'
p1808
F8.39049553837028
sS'concert'
p1809
F7.29188324970217
sS'fe'
p1810
F8.39049553837028
sS'auberlin'
p1811
F8.39049553837028
sS'connections'
p1812
F8.39049553837028
sS'j.'
p1813
F8.39049553837028
sS'college'
p1814
F5.299453085011964
sS'moross'
p1815
F8.39049553837028
sS'abyssinian'
p1816
F8.39049553837028
sS'impressions'
p1817
F8.39049553837028
sS'delongsweet'
p1818
F8.39049553837028
sS'dexter'
p1819
F8.39049553837028
sS'gospelcast'
p1820
F8.39049553837028
sS'mortgage'
p1821
F7.697348357810335
sS'federal'
p1822
F8.39049553837028
sS'harvey'
p1823
F8.39049553837028
sS'review'
p1824
F8.39049553837028
sS'josephs'
p1825
F8.39049553837028
sS'eduguide'
p1826
F8.39049553837028
sS'plymouth'
p1827
F6.78105762593618
sS'3'
p1828
F8.39049553837028
sS'downriver'
p1829
F6.78105762593618
sS'bureau'
p1830
F8.39049553837028
sS'jtd'
p1831
F8.39049553837028
sS'reading'
p1832
F7.697348357810335
sS'caucus'
p1833
F7.697348357810335
sS'affordable'
p1834
F8.39049553837028
sS'warrenconner'
p1835
F8.39049553837028
sS'infrastructure'
p1836
F8.39049553837028
sS'jobs'
p1837
F6.78105762593618
sS'aghrab'
p1838
F8.39049553837028
sS'parent'
p1839
F5.99260026557191
sS'parental'
p1840
F8.39049553837028
sS'jt'
p1841
F8.39049553837028
sS'pre'
p1842
F8.39049553837028
sS'jacobs'
p1843
F8.39049553837028
sS'm.o.o.r.e.'
p1844
F8.39049553837028
sS'keb'
p1845
F8.39049553837028
sS'jo'
p1846
F8.39049553837028
sS'awards'
p1847
F8.39049553837028
sS'jr'
p1848
F5.99260026557191
sS'pharmacists'
p1849
F8.39049553837028
sS'cities'
p1850
F7.697348357810335
sS'observances'
p1851
F8.39049553837028
sS'missionagape'
p1852
F8.39049553837028
sS'acquiring'
p1853
F7.697348357810335
sS'missions'
p1854
F7.697348357810335
sS'jfm'
p1855
F8.39049553837028
sS'leos'
p1856
F8.39049553837028
sS'groove'
p1857
F8.39049553837028
sS'diocesan'
p1858
F8.39049553837028
sS'priests'
p1859
F8.39049553837028
sS'knier'
p1860
F8.39049553837028
sS'enabling'
p1861
F7.697348357810335
sS'propagation'
p1862
F8.39049553837028
sS's'
p1863
F5.132399000348798
sS'iv'
p1864
F8.39049553837028
sS'residency'
p1865
F8.39049553837028
sS'0203307156875'
p1866
F8.39049553837028
sS'womanhood'
p1867
F8.39049553837028
sS'designations'
p1868
F8.39049553837028
sS'fans'
p1869
F8.39049553837028
sS'wheels'
p1870
F8.39049553837028
sS'expression'
p1871
F8.39049553837028
sS'armenian'
p1872
F8.39049553837028
sS'among'
p1873
F8.39049553837028
sS'cancer'
p1874
F6.598736069142225
sS'color'
p1875
F8.39049553837028
sS'continuation'
p1876
F8.39049553837028
sS'cua'
p1877
F8.39049553837028
sS'pop'
p1878
F8.39049553837028
sS'innovations'
p1879
F8.39049553837028
sS'dispatch'
p1880
F8.39049553837028
sS'anti'
p1881
F8.39049553837028
sS'learning'
p1882
F6.19327096103406
sS'joi'
p1883
F8.39049553837028
sS'marquette'
p1884
F8.39049553837028
sS'bizarre'
p1885
F8.39049553837028
sS'seeding'
p1886
F8.39049553837028
sS'moore'
p1887
F7.29188324970217
sS'caring'
p1888
F6.598736069142225
sS'arts'
p1889
F4.835147476880866
sS'oliver'
p1890
F8.39049553837028
sS'olivet'
p1891
F7.29188324970217
sS'leander'
p1892
F8.39049553837028
sS'cares'
p1893
F7.697348357810335
sS'west'
p1894
F5.90558888858228
sS'filmmakers'
p1895
F8.39049553837028
sS'mark'
p1896
F8.39049553837028
sS'almighty'
p1897
F8.39049553837028
sS'workshop'
p1898
F7.29188324970217
sS'arte'
p1899
F8.39049553837028
sS'peaceful'
p1900
F8.39049553837028
sS'borders'
p1901
F8.39049553837028
sS'prototype'
p1902
F8.39049553837028
sS'mary'
p1903
F5.90558888858228
sS'conner'
p1904
F8.39049553837028
sS'engine'
p1905
F8.39049553837028
sS'greenways'
p1906
F8.39049553837028
sS'direction'
p1907
F7.697348357810335
sS'gist'
p1908
F8.39049553837028
sS'maire'
p1909
F8.39049553837028
sS'kronk'
p1910
F8.39049553837028
sS'blessing'
p1911
F8.39049553837028
sS'andrew'
p1912
F6.444585389314967
sS'reaching'
p1913
F7.00420117725039
sS'edsel'
p1914
F7.697348357810335
sS'spiritlove'
p1915
F8.39049553837028
sS'hardcore'
p1916
F8.39049553837028
sS'spirit'
p1917
F7.00420117725039
sS'standard'
p1918
F8.39049553837028
sS'sound'
p1919
F7.697348357810335
sS'kathryn'
p1920
F7.697348357810335
sS'kappa'
p1921
F5.617906816130499
sS'washington'
p1922
F8.39049553837028
sS'developing'
p1923
F8.39049553837028
sS'these'
p1924
F8.39049553837028
sS'consultant'
p1925
F8.39049553837028
sS'j.p.'
p1926
F8.39049553837028
sS'single'
p1927
F8.39049553837028
sS'nyame'
p1928
F8.39049553837028
sS'heartline'
p1929
F8.39049553837028
sS'cass'
p1930
F6.444585389314967
sS'margie'
p1931
F8.39049553837028
sS'newspaper'
p1932
F8.39049553837028
sS'roostertail'
p1933
F8.39049553837028
sS'buen'
p1934
F8.39049553837028
sS'determination'
p1935
F8.39049553837028
sS'broadside'
p1936
F8.39049553837028
sS'caine'
p1937
F8.39049553837028
sS'passionist'
p1938
F8.39049553837028
sS'uloom'
p1939
F8.39049553837028
sS'nso'
p1940
F8.39049553837028
sS'tubman'
p1941
F7.29188324970217
sS'embrace'
p1942
F8.39049553837028
sS'minds'
p1943
F8.39049553837028
sS'mcgregor'
p1944
F7.697348357810335
sS'chairmen'
p1945
F8.39049553837028
sS'property'
p1946
F7.00420117725039
sS'(fema)'
p1947
F8.39049553837028
sS'fame'
p1948
F7.697348357810335
sS'mercier'
p1949
F8.39049553837028
sS'movements'
p1950
F8.39049553837028
sS'huron'
p1951
F8.39049553837028
sS'develop'
p1952
F8.39049553837028
sS'mana'
p1953
F8.39049553837028
sS'pay'
p1954
F8.39049553837028
sS'preparatory'
p1955
F7.697348357810335
sS'horatio'
p1956
F7.697348357810335
sS'tour'
p1957
F7.697348357810335
sS'corporations'
p1958
F8.39049553837028
sS'coprporationcalvary'
p1959
F8.39049553837028
sS'wizards'
p1960
F8.39049553837028
sS'pad'
p1961
F8.39049553837028
sS'yuinon'
p1962
F8.39049553837028
sS'marcks'
p1963
F8.39049553837028
sS'struggling'
p1964
F8.39049553837028
sS'pal'
p1965
F8.39049553837028
sS'isle'
p1966
F6.78105762593618
sS'pan'
p1967
F7.697348357810335
sS'baitul'
p1968
F7.697348357810335
sS'visually'
p1969
F7.697348357810335
sS'(dch)'
p1970
F8.39049553837028
sS'faculty'
p1971
F8.39049553837028
sS'carse'
p1972
F8.39049553837028
sS'mottep'
p1973
F8.39049553837028
sS'nest'
p1974
F8.39049553837028
sS'arden'
p1975
F8.39049553837028
sS'ness'
p1976
F7.697348357810335
sS'driven'
p1977
F8.39049553837028
sS'diversion'
p1978
F8.39049553837028
sS'corwill'
p1979
F8.39049553837028
sS'barber'
p1980
F7.29188324970217
sS'climbing'
p1981
F8.39049553837028
sS'sermetrodetroit'
p1982
F8.39049553837028
sS'unitrust'
p1983
F8.39049553837028
sS'theater'
p1984
F6.78105762593618
sS'nnpcdc'
p1985
F8.39049553837028
sS'uawrepresented'
p1986
F8.39049553837028
sS'educating'
p1987
F8.39049553837028
sS'pennsylvania'
p1988
F8.39049553837028
sS'purposeful'
p1989
F8.39049553837028
sS'without'
p1990
F7.697348357810335
sS'relief'
p1991
F6.598736069142225
sS'ccc'
p1992
F8.39049553837028
sS'scholarship'
p1993
F4.779577625726056
sS'gates'
p1994
F8.39049553837028
sS'peace'
p1995
F5.825546180908743
sS'recycles'
p1996
F8.39049553837028
sS'(thaw)'
p1997
F8.39049553837028
sS'being'
p1998
F8.39049553837028
sS'councilinc'
p1999
F8.39049553837028
sS'armour'
p2000
F8.39049553837028
sS'cleage'
p2001
F8.39049553837028
sS'(jas)'
p2002
F8.39049553837028
sS'(epa)'
p2003
F8.39049553837028
sS'(ucp)'
p2004
F8.39049553837028
sS'ch'
p2005
F7.697348357810335
sS'replanting'
p2006
F8.39049553837028
sS'touch'
p2007
F8.39049553837028
sS'polish'
p2008
F7.00420117725039
sS'baldwin'
p2009
F8.39049553837028
sS'dariel'
p2010
F8.39049553837028
sS'vaughn'
p2011
F8.39049553837028
sS'asthma'
p2012
F8.39049553837028
sS'quelle'
p2013
F8.39049553837028
sS'ny'
p2014
F7.697348357810335
sS'mcdonald'
p2015
F7.697348357810335
sS'rose'
p2016
F7.00420117725039
sS're3'
p2017
F8.39049553837028
sS'pharmaceutical'
p2018
F8.39049553837028
sS'rosa'
p2019
F7.697348357810335
sS'improvement'
p2020
F7.29188324970217
sS'blog'
p2021
F8.39049553837028
sS'samuel'
p2022
F8.39049553837028
sS'4'
p2023
F7.00420117725039
sS'bsj'
p2024
F8.39049553837028
sS'reformed'
p2025
F8.39049553837028
sS'substance'
p2026
F8.39049553837028
sS'careers'
p2027
F8.39049553837028
sS'ross'
p2028
F7.697348357810335
sS'real'
p2029
F6.311053996690444
sS'leipzig'
p2030
F8.39049553837028
sS'zion'
p2031
F5.299453085011964
sS'around'
p2032
F8.39049553837028
sS'phelps'
p2033
F8.39049553837028
sS'read'
p2034
F8.39049553837028
sS'ame'
p2035
F7.697348357810335
sS'virginia'
p2036
F8.39049553837028
sS'dci'
p2037
F8.39049553837028
sS'early'
p2038
F8.39049553837028
sS'department'
p2039
F5.557282194314064
sS'deserving'
p2040
F8.39049553837028
sS'traffic'
p2041
F7.697348357810335
sS'seahawks'
p2042
F8.39049553837028
sS'mom'
p2043
F8.39049553837028
sS'world'
p2044
F5.446056559203839
sS'postal'
p2045
F7.697348357810335
sS'lady'
p2046
F6.78105762593618
sS'dare'
p2047
F7.697348357810335
sS'furniture'
p2048
F8.39049553837028
sS'christine'
p2049
F8.39049553837028
sS'patrick'
p2050
F7.00420117725039
sS'collective'
p2051
F6.78105762593618
sS'doehlerjarvis'
p2052
F8.39049553837028
sS'miracle'
p2053
F7.29188324970217
sS'souvenirs'
p2054
F8.39049553837028
sS'chamber'
p2055
F6.311053996690444
sS'benefit'
p2056
F5.99260026557191
sS'motorcity'
p2057
F8.39049553837028
sS'donations'
p2058
F8.39049553837028
sS't'
p2059
F5.500123780474115
sS'hallelujah'
p2060
F8.39049553837028
sS'fully'
p2061
F8.39049553837028
sS'luterana'
p2062
F8.39049553837028
sS'stevenson'
p2063
F8.39049553837028
sS'cooperation'
p2064
F8.39049553837028
sS'twelve'
p2065
F8.39049553837028
sS'66'
p2066
F8.39049553837028
sS'exposed'
p2067
F8.39049553837028
sS'barton'
p2068
F8.39049553837028
sS'67'
p2069
F8.39049553837028
sS'pacific'
p2070
F7.29188324970217
sS'bellaimeyfoundation'
p2071
F8.39049553837028
sS'glenwood'
p2072
F8.39049553837028
sS'suppl'
p2073
F8.39049553837028
sS'quilters'
p2074
F8.39049553837028
sS'images'
p2075
F8.39049553837028
sS'hertiage'
p2076
F8.39049553837028
sS'divine'
p2077
F6.598736069142225
sS'organizing'
p2078
F7.697348357810335
sS'matching'
p2079
F8.39049553837028
sS'canfield'
p2080
F8.39049553837028
sS'scholarships'
p2081
F8.39049553837028
sS'ellis'
p2082
F7.697348357810335
sS'micro'
p2083
F8.39049553837028
sS'henderson'
p2084
F8.39049553837028
sS'legal'
p2085
F5.394763264816289
sS'conservative'
p2086
F8.39049553837028
sS'boat'
p2087
F7.697348357810335
sS'(medc)'
p2088
F8.39049553837028
sS'ephraim'
p2089
F8.39049553837028
sS'elliottorian'
p2090
F8.39049553837028
sS'ivery'
p2091
F8.39049553837028
sS'football'
p2092
F7.29188324970217
sS'assembly'
p2093
F5.99260026557191
sS'mahanaim'
p2094
F8.39049553837028
sS'power'
p2095
F5.90558888858228
sS'asap'
p2096
F8.39049553837028
sS'each'
p2097
F8.39049553837028
sS'olives'
p2098
F7.697348357810335
sS'kiwanis'
p2099
F7.697348357810335
sS'utilities'
p2100
F8.39049553837028
sS'leadership'
p2101
F6.444585389314967
sS'innocence'
p2102
F8.39049553837028
sS'livernois'
p2103
F8.39049553837028
sS'resurrection'
p2104
F6.78105762593618
sS'yamato'
p2105
F8.39049553837028
sS'kincannon'
p2106
F8.39049553837028
sS'on'
p2107
F5.299453085011964
sS'stone'
p2108
F7.29188324970217
sS'central'
p2109
F5.68244533726807
sS'hicks'
p2110
F7.697348357810335
sS'jeep'
p2111
F8.39049553837028
sS'of'
p2112
F1.5510191001414373
sS'industry'
p2113
F8.39049553837028
sS'violence'
p2114
F8.39049553837028
sS'ob'
p2115
F8.39049553837028
sS'meal'
p2116
F8.39049553837028
sS'aquaculture'
p2117
F7.697348357810335
sS'neighbor'
p2118
F8.39049553837028
sS'jabal'
p2119
F8.39049553837028
sS'gregory'
p2120
F8.39049553837028
sS'lasting'
p2121
F8.39049553837028
sS'or'
p2122
F8.39049553837028
sS'road'
p2123
F7.29188324970217
sS'organizers'
p2124
F8.39049553837028
sS'outlook'
p2125
F8.39049553837028
sS'cambridge'
p2126
F8.39049553837028
sS'burning'
p2127
F8.39049553837028
sS'inclusion'
p2128
F7.697348357810335
sS'communication'
p2129
F7.00420117725039
sS'image'
p2130
F7.697348357810335
sS'avanti'
p2131
F8.39049553837028
sS'blessed'
p2132
F7.00420117725039
sS'zoar'
p2133
F8.39049553837028
sS'lakeview'
p2134
F8.39049553837028
sS'marjorie'
p2135
F8.39049553837028
sS'rising'
p2136
F7.00420117725039
sS'homeless'
p2137
F7.29188324970217
sS'elementary'
p2138
F6.311053996690444
sS'jerusalem'
p2139
F7.00420117725039
sS'wellspring'
p2140
F7.697348357810335
sS'pamper'
p2141
F8.39049553837028
sS'racquet'
p2142
F7.29188324970217
sS'residuary'
p2143
F8.39049553837028
sS'joysouthfield'
p2144
F7.697348357810335
sS'epiphanyasr'
p2145
F8.39049553837028
sS'her'
p2146
F8.39049553837028
sS'area'
p2147
F5.825546180908743
sS'strictly'
p2148
F8.39049553837028
sS'there'
p2149
F8.39049553837028
sS'philadelphia'
p2150
F8.39049553837028
sS'start'
p2151
F6.78105762593618
sS'lions'
p2152
F6.444585389314967
sS'stars'
p2153
F8.39049553837028
sS'starr'
p2154
F7.697348357810335
sS'valley'
p2155
F8.39049553837028
sS'woodbridge'
p2156
F8.39049553837028
sS'morrison'
p2157
F8.39049553837028
sS'interfaith'
p2158
F7.697348357810335
sS'alikhlas'
p2159
F8.39049553837028
sS'storytellers'
p2160
F7.697348357810335
sS'dymond'
p2161
F8.39049553837028
sS'jur'
p2162
F8.39049553837028
sS'(dod)'
p2163
F8.39049553837028
sS'yondotega'
p2164
F8.39049553837028
sS'mich'
p2165
F8.39049553837028
sS'(dhhs)'
p2166
F8.39049553837028
sS'promote'
p2167
F8.39049553837028
sS'with'
p2168
F6.311053996690444
sS'nonviolence'
p2169
F8.39049553837028
sS'hire'
p2170
F8.39049553837028
sS'assn'
p2171
F7.29188324970217
sS'dominican'
p2172
F7.697348357810335
sS'fredrick'
p2173
F8.39049553837028
sS'atrisk'
p2174
F8.39049553837028
sS'louisiana'
p2175
F8.39049553837028
sS'arlington'
p2176
F8.39049553837028
sS'jamaican'
p2177
F8.39049553837028
sS'kresge'
p2178
F8.39049553837028
sS'adiuvo'
p2179
F8.39049553837028
sS'tuskegee'
p2180
F7.697348357810335
sS'sullivans'
p2181
F8.39049553837028
sS'builders'
p2182
F7.29188324970217
sS'rust'
p2183
F7.697348357810335
sS'glenda'
p2184
F8.39049553837028
sS'detroiters'
p2185
F7.697348357810335
sS'ac'
p2186
F8.39049553837028
sS'celestial'
p2187
F7.697348357810335
sS'citizenship'
p2188
F7.697348357810335
sS'czechoslovak'
p2189
F8.39049553837028
sS'alcholism'
p2190
F8.39049553837028
sS'fdtn'
p2191
F8.39049553837028
sS'am'
p2192
F7.29188324970217
sS'al'
p2193
F7.697348357810335
sS'mundo'
p2194
F8.39049553837028
sS'general'
p2195
F6.598736069142225
sS'muslimun'
p2196
F8.39049553837028
sS'imagination'
p2197
F8.39049553837028
sS'as'
p2198
F7.697348357810335
sS'salem'
p2199
F8.39049553837028
sS'corporationlansing'
p2200
F8.39049553837028
sS'at'
p2201
F7.29188324970217
sS'file'
p2202
F8.39049553837028
sS'cathedral'
p2203
F5.446056559203839
sS'lifetime'
p2204
F8.39049553837028
sS'hound'
p2205
F8.39049553837028
sS'hospitals'
p2206
F7.29188324970217
sS'bishop'
p2207
F7.697348357810335
sS'film'
p2208
F8.39049553837028
sS'vickie'
p2209
F8.39049553837028
sS'lssm'
p2210
F8.39049553837028
sS'vocational'
p2211
F8.39049553837028
sS'graduate'
p2212
F8.39049553837028
sS'field'
p2213
F6.78105762593618
sS'regents'
p2214
F8.39049553837028
sS'salt'
p2215
F8.39049553837028
sS'you'
p2216
F7.00420117725039
sS'offered'
p2217
F8.39049553837028
sS'siders'
p2218
F8.39049553837028
sS'monteith'
p2219
F8.39049553837028
sS'aero'
p2220
F8.39049553837028
sS'arborsequoia'
p2221
F8.39049553837028
sS'collaborative'
p2222
F7.00420117725039
sS'academies'
p2223
F7.697348357810335
sS'students'
p2224
F7.697348357810335
sS'babist'
p2225
F8.39049553837028
sS'alumniassociation'
p2226
F8.39049553837028
sS'chorale'
p2227
F7.697348357810335
sS'reuther'
p2228
F8.39049553837028
sS'beulah'
p2229
F7.00420117725039
sS'accounts'
p2230
F8.39049553837028
sS'brotherhood'
p2231
F5.500123780474115
sS'funding'
p2232
F7.29188324970217
sS'brass'
p2233
F8.39049553837028
sS'pool'
p2234
F8.39049553837028
sS'psychology'
p2235
F7.697348357810335
sS'building'
p2236
F5.825546180908743
sS'tiger'
p2237
F7.697348357810335
sS'individual'
p2238
F8.39049553837028
sS'applause'
p2239
F8.39049553837028
sS'bayley'
p2240
F8.39049553837028
sS'invest'
p2241
F7.29188324970217
sS'soulardarity'
p2242
F8.39049553837028
sS'raphael'
p2243
F8.39049553837028
sS'detrich'
p2244
F8.39049553837028
sS'boosters'
p2245
F8.39049553837028
sS'stringz'
p2246
F8.39049553837028
sS'nelson'
p2247
F8.39049553837028
sS'behavioral'
p2248
F7.29188324970217
sS'strings'
p2249
F8.39049553837028
sS'5003305'
p2250
F8.39049553837028
sS'chm'
p2251
F8.39049553837028
sS'colleges'
p2252
F8.39049553837028
sS'sch'
p2253
F8.39049553837028
sS'chinese'
p2254
F7.697348357810335
sS'ali'
p2255
F8.39049553837028
sS'hampton'
p2256
F8.39049553837028
sS'devine'
p2257
F7.697348357810335
sS'liab'
p2258
F8.39049553837028
sS'shiawassee'
p2259
F8.39049553837028
sS'cooperative'
p2260
F8.39049553837028
sS'welfare'
p2261
F6.444585389314967
sS'expressions'
p2262
F8.39049553837028
sS'mason'
p2263
F7.697348357810335
sS'revealed'
p2264
F7.697348357810335
sS'children'
p2265
F5.500123780474115
sS'causes'
p2266
F8.39049553837028
sS'bapt'
p2267
F7.29188324970217
sS'jessie'
p2268
F7.697348357810335
sS'corps'
p2269
F6.598736069142225
sS'patricks'
p2270
F8.39049553837028
sS'immanuel'
p2271
F7.00420117725039
sS'mckibben'
p2272
F8.39049553837028
sS'wyoming'
p2273
F8.39049553837028
sS'tr'
p2274
F4.540347936660221
sS'trixie'
p2275
F8.39049553837028
sS'opportunities'
p2276
F6.78105762593618
sS'to'
p2277
F5.212441708022334
sS'xconomy'
p2278
F8.39049553837028
sS'program'
p2279
F4.864135013754119
sS'elias'
p2280
F8.39049553837028
sS'th'
p2281
F8.39049553837028
sS'health'
p2282
F4.156389033773021
sS'midwest'
p2283
F7.00420117725039
sS'gilmourjirgens'
p2284
F8.39049553837028
sS'activities'
p2285
F8.39049553837028
sS'woman'
p2286
F8.39049553837028
sS'premium'
p2287
F8.39049553837028
sS'ministerial'
p2288
F7.697348357810335
sS'deeper'
p2289
F7.697348357810335
sS'song'
p2290
F7.697348357810335
sS'blanchard'
p2291
F8.39049553837028
sS'sasha'
p2292
F8.39049553837028
sS'vera'
p2293
F7.697348357810335
sS'me'
p2294
F7.29188324970217
sS'sons'
p2295
F6.78105762593618
sS'got'
p2296
F8.39049553837028
sS'winning'
p2297
F8.39049553837028
sS'clothide'
p2298
F8.39049553837028
sS'neurological'
p2299
F7.697348357810335
sS'heaven'
p2300
F7.00420117725039
sS'mothers'
p2301
F7.697348357810335
sS'benevolent'
p2302
F6.311053996690444
sS'judith'
p2303
F8.39049553837028
sS'dove'
p2304
F8.39049553837028
sS'benford'
p2305
F8.39049553837028
sS'(esd)'
p2306
F8.39049553837028
sS'lesbians'
p2307
F8.39049553837028
sS'harry'
p2308
F7.00420117725039
sS'small'
p2309
F7.697348357810335
sS'study'
p2310
F7.697348357810335
sS'golightly'
p2311
F8.39049553837028
sS'magdalene'
p2312
F8.39049553837028
sS'mount'
p2313
F6.311053996690444
sS'maggie'
p2314
F7.697348357810335
sS'considine'
p2315
F8.39049553837028
sS'neighborhood'
p2316
F5.094658672365951
sS'portable'
p2317
F8.39049553837028
sS'ten'
p2318
F8.39049553837028
sS'harder'
p2319
F8.39049553837028
sS'paso'
p2320
F8.39049553837028
sS'ritter'
p2321
F8.39049553837028
sS'lending'
p2322
F8.39049553837028
sS'past'
p2323
F8.39049553837028
sS'llc'
p2324
F6.311053996690444
sS'design'
p2325
F7.697348357810335
sS'perspective'
p2326
F8.39049553837028
sS'(dega)'
p2327
F8.39049553837028
sS'wisconsin'
p2328
F8.39049553837028
sS'hayes'
p2329
F8.39049553837028
sS'investment'
p2330
F6.78105762593618
sS'swedish'
p2331
F8.39049553837028
sS'harden'
p2332
F8.39049553837028
sS'what'
p2333
F8.39049553837028
sS'walkerbenton'
p2334
F8.39049553837028
sS'sub'
p2335
F8.39049553837028
sS'mobilizing'
p2336
F7.697348357810335
sS'ecclesiastical'
p2337
F7.697348357810335
sS'section'
p2338
F8.39049553837028
sS'gardens'
p2339
F7.697348357810335
sS'gabooney'
p2340
F8.39049553837028
sS'microbiology'
p2341
F8.39049553837028
sS'depsa'
p2342
F8.39049553837028
sS'garth'
p2343
F8.39049553837028
sS'trainmen'
p2344
F8.39049553837028
sS'hecht'
p2345
F8.39049553837028
sS'empresa'
p2346
F8.39049553837028
sS'public'
p2347
F5.212441708022334
sS'movement'
p2348
F6.78105762593618
sS'morman'
p2349
F8.39049553837028
sS'biz4you'
p2350
F8.39049553837028
sS'full'
p2351
F5.500123780474115
sS'christian'
p2352
F3.6455634100070298
sS'empower'
p2353
F7.697348357810335
sS'india'
p2354
F8.39049553837028
sS'ofmichigan'
p2355
F8.39049553837028
sS'retreat'
p2356
F7.697348357810335
sS'archdiocese'
p2357
F6.78105762593618
sS'andrews'
p2358
F8.39049553837028
sS'corporationn'
p2359
F8.39049553837028
sS'directions'
p2360
F8.39049553837028
sS'inhome'
p2361
F8.39049553837028
sS'strong'
p2362
F7.00420117725039
sS'assalaam'
p2363
F7.697348357810335
sS'christs'
p2364
F7.697348357810335
sS'barnabas'
p2365
F8.39049553837028
sS'wieczorek'
p2366
F8.39049553837028
sS'pleasant'
p2367
F7.697348357810335
sS'search'
p2368
F8.39049553837028
sS'bible'
p2369
F5.7514382087550215
sS'prosecutors'
p2370
F8.39049553837028
sS'zone'
p2371
F7.00420117725039
sS'ahead'
p2372
F7.697348357810335
sS'heifer'
p2373
F8.39049553837028
sS'stretching'
p2374
F8.39049553837028
sS'gunzburger'
p2375
F8.39049553837028
sS'experience'
p2376
F7.29188324970217
sS'round'
p2377
F8.39049553837028
sS'soldier'
p2378
F8.39049553837028
sS'airport'
p2379
F7.697348357810335
sS'searcy'
p2380
F8.39049553837028
sS'advertising'
p2381
F8.39049553837028
sS'social'
p2382
F5.446056559203839
sS'action'
p2383
F5.557282194314064
sS'wharton'
p2384
F8.39049553837028
sS'narrow'
p2385
F8.39049553837028
sS'link'
p2386
F8.39049553837028
sS'pregnancy'
p2387
F7.29188324970217
sS'antioch'
p2388
F7.697348357810335
sS'amvets'
p2389
F8.39049553837028
sS'giants'
p2390
F8.39049553837028
sS'via'
p2391
F8.39049553837028
sS'family'
p2392
F4.296150976148179
sS'firemens'
p2393
F7.697348357810335
sS'wesleyan'
p2394
F8.39049553837028
sS'commandments'
p2395
F8.39049553837028
sS'byrd'
p2396
F8.39049553837028
sS'virgins'
p2397
F8.39049553837028
sS'vip'
p2398
F8.39049553837028
sS'ocelot'
p2399
F8.39049553837028
sS'corletta'
p2400
F8.39049553837028
sS'languages'
p2401
F8.39049553837028
sS'conventional'
p2402
F8.39049553837028
sS'eye'
p2403
F8.39049553837028
sS'maron'
p2404
F7.697348357810335
sS'shalome'
p2405
F8.39049553837028
sS'hardcourt'
p2406
F8.39049553837028
sS'tidings'
p2407
F8.39049553837028
sS'squires'
p2408
F8.39049553837028
sS'archives'
p2409
F8.39049553837028
sS'biobank'
p2410
F8.39049553837028
sS'alano'
p2411
F8.39049553837028
sS'military'
p2412
F7.00420117725039
sS'minor'
p2413
F8.39049553837028
sS'more'
p2414
F7.29188324970217
sS'teen'
p2415
F7.697348357810335
sS'flat'
p2416
F8.39049553837028
sS'israel'
p2417
F7.697348357810335
sS'mellon'
p2418
F8.39049553837028
sS'door'
p2419
F6.444585389314967
sS'company'
p2420
F5.299453085011964
sS'outpatient'
p2421
F8.39049553837028
sS'leonard'
p2422
F8.39049553837028
sS'macomb'
p2423
F7.697348357810335
sS'cadwell'
p2424
F8.39049553837028
sS'stuckey'
p2425
F8.39049553837028
sS'citizenry'
p2426
F8.39049553837028
sS'foundations'
p2427
F7.697348357810335
sS'glad'
p2428
F8.39049553837028
sS'keeping'
p2429
F7.29188324970217
sS'worldwide'
p2430
F7.697348357810335
sS'eden'
p2431
F7.697348357810335
sS'middle'
p2432
F7.29188324970217
sS'science'
p2433
F6.19327096103406
sS'det'
p2434
F8.39049553837028
sS'coalition'
p2435
F4.924759635570553
sS'hartfords'
p2436
F8.39049553837028
sS'del'
p2437
F7.29188324970217
sS'morgan'
p2438
F8.39049553837028
sS'v'
p2439
F6.444585389314967
sS'facelift'
p2440
F8.39049553837028
sS'male'
p2441
F7.29188324970217
sS'history'
p2442
F6.598736069142225
sS'funders'
p2443
F7.697348357810335
sS'allegra'
p2444
F7.697348357810335
sS'brown'
p2445
F7.29188324970217
sS'templar'
p2446
F7.697348357810335
sS'methodist'
p2447
F5.446056559203839
sS'states'
p2448
F7.29188324970217
sS'collision'
p2449
F8.39049553837028
sS'greathouse'
p2450
F8.39049553837028
sS'prosperus'
p2451
F8.39049553837028
sS'attain'
p2452
F8.39049553837028
sS'arise'
p2453
F7.697348357810335
sS'magenta'
p2454
F8.39049553837028
sS'hhh'
p2455
F8.39049553837028
sS'livng'
p2456
F8.39049553837028
sS'information'
p2457
F7.697348357810335
sS'needs'
p2458
F7.697348357810335
sS'court'
p2459
F8.39049553837028
sS'minist'
p2460
F8.39049553837028
sS'et'
p2461
F8.39049553837028
sS'technology'
p2462
F6.78105762593618
sS'acts'
p2463
F7.29188324970217
sS'ledger'
p2464
F8.39049553837028
sS'ivy'
p2465
F8.39049553837028
sS'clinc'
p2466
F8.39049553837028
sS'musica'
p2467
F7.697348357810335
sS'sacred'
p2468
F7.00420117725039
sS'automotive'
p2469
F7.697348357810335
sS'deliveranceinternational'
p2470
F8.39049553837028
sS'ensemble'
p2471
F7.697348357810335
sS'vietnam'
p2472
F7.697348357810335
sS'authorizers'
p2473
F8.39049553837028
sS'wylde'
p2474
F8.39049553837028
sS'w'
p2475
F5.617906816130499
sS'fairmount'
p2476
F7.29188324970217
sS'notre'
p2477
F8.39049553837028
sS'rivkin'
p2478
F8.39049553837028
sS'entrepreneurship'
p2479
F7.29188324970217
sS'warehouse'
p2480
F8.39049553837028
sS'fd'
p2481
F7.697348357810335
sS'blood'
p2482
F7.697348357810335
sS'coming'
p2483
F8.39049553837028
sS'gardeners'
p2484
F8.39049553837028
sS'pat'
p2485
F8.39049553837028
sS'midwestmichigan'
p2486
F8.39049553837028
sS'authentic'
p2487
F8.39049553837028
sS'ademic'
p2488
F8.39049553837028
sS'a'
p2489
F4.279621674196968
sS'barba'
p2490
F8.39049553837028
sS'troit'
p2491
F8.39049553837028
sS'mccaskill'
p2492
F8.39049553837028
sS'broadcasting'
p2493
F8.39049553837028
sS'fundamental'
p2494
F8.39049553837028
sS'media'
p2495
F6.444585389314967
sS'banks'
p2496
F7.697348357810335
sS'dream'
p2497
F6.78105762593618
sS'fender'
p2498
F8.39049553837028
sS'trustees'
p2499
F8.39049553837028
sS'help'
p2500
F5.99260026557191
sS'essence'
p2501
F8.39049553837028
sS'flowers'
p2502
F8.39049553837028
sS'emmanuel'
p2503
F6.444585389314967
sS'charities'
p2504
F6.78105762593618
sS'trade'
p2505
F7.00420117725039
sS'disabled'
p2506
F7.29188324970217
sS'logan'
p2507
F8.39049553837028
sS'industrial'
p2508
F7.697348357810335
sS'through'
p2509
F8.39049553837028
sS'sdcdc'
p2510
F8.39049553837028
sS'committee'
p2511
F6.0879104453762345
sS'oldschool'
p2512
F8.39049553837028
sS'surveillance'
p2513
F8.39049553837028
sS'avenue'
p2514
F5.68244533726807
sS'its'
p2515
F8.39049553837028
sS'roots'
p2516
F8.39049553837028
sS'style'
p2517
F8.39049553837028
sS'20'
p2518
F8.39049553837028
sS'kainos'
p2519
F8.39049553837028
sS'matthew'
p2520
F8.39049553837028
sS'caesars'
p2521
F8.39049553837028
sS'deeds'
p2522
F8.39049553837028
sS'bosom'
p2523
F8.39049553837028
sS'scully'
p2524
F8.39049553837028
sS'0583280'
p2525
F8.39049553837028
sS'mable'
p2526
F8.39049553837028
sS'pcl'
p2527
F8.39049553837028
sS'stephen'
p2528
F6.78105762593618
sS'cross'
p2529
F5.68244533726807
sS'naacp'
p2530
F8.39049553837028
sS'holbrook'
p2531
F8.39049553837028
sS'verna'
p2532
F8.39049553837028
sS'good'
p2533
F7.697348357810335
sS'return'
p2534
F7.29188324970217
sS'food'
p2535
F5.500123780474115
sS'perp'
p2536
F8.39049553837028
sS'axemen'
p2537
F8.39049553837028
sS'ye'
p2538
F8.39049553837028
sS'corporatioin'
p2539
F8.39049553837028
sS'gracious'
p2540
F8.39049553837028
sS'samuels'
p2541
F8.39049553837028
sS'olivia'
p2542
F8.39049553837028
sS'oracles'
p2543
F8.39049553837028
sS'arranging'
p2544
F8.39049553837028
sS'communities'
p2545
F5.99260026557191
sS'ethington'
p2546
F8.39049553837028
sS'bollywood'
p2547
F8.39049553837028
sS'association'
p2548
F3.1278053494653943
sS'marcus'
p2549
F8.39049553837028
sS'tmsimmons'
p2550
F8.39049553837028
sS'idlewild'
p2551
F7.697348357810335
sS'behrend'
p2552
F7.697348357810335
sS'always'
p2553
F8.39049553837028
sS'assemblies'
p2554
F7.00420117725039
sS'servicenetwork'
p2555
F8.39049553837028
sS'wahls'
p2556
F8.39049553837028
sS'eleanor'
p2557
F7.697348357810335
sS'iff'
p2558
F8.39049553837028
sS'(hand)'
p2559
F8.39049553837028
sS'experiencing'
p2560
F8.39049553837028
sS'found'
p2561
F8.39049553837028
sS'friendship'
p2562
F8.39049553837028
sS'marygrove'
p2563
F7.697348357810335
sS'penske'
p2564
F8.39049553837028
sS'everyone'
p2565
F8.39049553837028
sS'england'
p2566
F7.697348357810335
sS'mental'
p2567
F6.444585389314967
sS'accelerator'
p2568
F8.39049553837028
sS'noble'
p2569
F8.39049553837028
sS'generation'
p2570
F6.598736069142225
sS'house'
p2571
F4.231612455010608
sS'energy'
p2572
F7.00420117725039
sS'hard'
p2573
F8.39049553837028
sS'mbaise'
p2574
F8.39049553837028
sS'engaging'
p2575
F8.39049553837028
sS'connect'
p2576
F7.29188324970217
sS'berea'
p2577
F8.39049553837028
sS'carry'
p2578
F8.39049553837028
sS'operation'
p2579
F7.29188324970217
sS'hart'
p2580
F8.39049553837028
sS'insurance'
p2581
F7.697348357810335
sS'harp'
p2582
F8.39049553837028
sS'worshipers'
p2583
F8.39049553837028
sS'leave'
p2584
F8.39049553837028
sS'initiatives'
p2585
F6.598736069142225
sS'perry'
p2586
F7.697348357810335
sS'meijer'
p2587
F8.39049553837028
sS'francies'
p2588
F8.39049553837028
sS'blacks'
p2589
F7.697348357810335
sS'miss'
p2590
F7.697348357810335
sS'robert'
p2591
F6.444585389314967
sS'garvey'
p2592
F8.39049553837028
sS'dallen'
p2593
F8.39049553837028
sS'research'
p2594
F5.299453085011964
sS'wolverine'
p2595
F6.78105762593618
sS'reverend'
p2596
F7.697348357810335
sS'safety'
p2597
F7.00420117725039
sS'hill'
p2598
F6.311053996690444
sS'7'
p2599
F8.39049553837028
sS'paradise'
p2600
F7.697348357810335
sS'print'
p2601
F8.39049553837028
sS'nonunion'
p2602
F7.697348357810335
sS'ministriesincorporated'
p2603
F8.39049553837028
sS'issue'
p2604
F8.39049553837028
sS'mittens'
p2605
F8.39049553837028
sS'highway'
p2606
F8.39049553837028
sS'benjamin'
p2607
F7.697348357810335
sS'corporationmonroe'
p2608
F8.39049553837028
sS'exodus'
p2609
F8.39049553837028
sS'jeremiah'
p2610
F8.39049553837028
sS'lawrence'
p2611
F7.00420117725039
sS'detroitwayne'
p2612
F7.697348357810335
sS'pub'
p2613
F8.39049553837028
sS'labs'
p2614
F8.39049553837028
sS'asa'
p2615
F8.39049553837028
sS'noma'
p2616
F8.39049553837028
sS'alzheimer'
p2617
F8.39049553837028
sS'imaging'
p2618
F7.697348357810335
sS'dorsey'
p2619
F8.39049553837028
sS'ask'
p2620
F8.39049553837028
sS'matthews'
p2621
F7.697348357810335
sS'teach'
p2622
F8.39049553837028
sS'ash'
p2623
F8.39049553837028
sS'beginning'
p2624
F7.00420117725039
sS'director'
p2625
F8.39049553837028
sS'greiner'
p2626
F8.39049553837028
sS'benefits'
p2627
F6.78105762593618
sS'revival'
p2628
F7.00420117725039
sS'launch'
p2629
F8.39049553837028
sS'lewisville'
p2630
F8.39049553837028
sS'hammond'
p2631
F8.39049553837028
sS'americas'
p2632
F7.697348357810335
sS'the@glorious'
p2633
F8.39049553837028
sS'american'
p2634
F3.755766550140644
sS'ashton'
p2635
F8.39049553837028
sS'threat'
p2636
F7.697348357810335
sS'scouts'
p2637
F7.29188324970217
sS'testament'
p2638
F7.29188324970217
sS'javitch'
p2639
F8.39049553837028
sS'allstars'
p2640
F8.39049553837028
sS'st.'
p2641
F7.697348357810335
sS'detroits'
p2642
F7.00420117725039
sS'newsboys'
p2643
F7.697348357810335
sS'major'
p2644
F8.39049553837028
sS'mr'
p2645
F8.39049553837028
sS'zuri'
p2646
F8.39049553837028
sS'sinclair'
p2647
F8.39049553837028
sS'number'
p2648
F7.697348357810335
sS'preservation'
p2649
F7.00420117725039
sS'fierce'
p2650
F8.39049553837028
sS'knabe'
p2651
F8.39049553837028
sS'peddy'
p2652
F8.39049553837028
sS'changing'
p2653
F8.39049553837028
sS'belmont'
p2654
F7.697348357810335
sS'visions'
p2655
F7.697348357810335
sS'baptistchurch'
p2656
F8.39049553837028
sS'kairabowt'
p2657
F8.39049553837028
sS'evona'
p2658
F8.39049553837028
sS'nations'
p2659
F7.29188324970217
sS'marine'
p2660
F7.29188324970217
sS'jet'
p2661
F8.39049553837028
sS'ewell'
p2662
F8.39049553837028
sS'leading'
p2663
F8.39049553837028
sS'interviews'
p2664
F8.39049553837028
sS'harris'
p2665
F8.39049553837028
sS'tradition'
p2666
F8.39049553837028
sS'belongs'
p2667
F8.39049553837028
sS'station'
p2668
F7.29188324970217
sS'esan'
p2669
F8.39049553837028
sS'cafa(c)'
p2670
F8.39049553837028
sS'corporat'
p2671
F8.39049553837028
sS'master'
p2672
F8.39049553837028
sS'jem'
p2673
F8.39049553837028
sS'mini'
p2674
F8.39049553837028
sS'samaritano'
p2675
F8.39049553837028
sS'saint'
p2676
F6.78105762593618
sS'radler'
p2677
F8.39049553837028
sS'needle'
p2678
F8.39049553837028
sS'park'
p2679
F5.094658672365951
sS'tricity'
p2680
F8.39049553837028
sS'wtcdw'
p2681
F8.39049553837028
sS'jamia'
p2682
F8.39049553837028
sS'appreciation'
p2683
F7.697348357810335
sS'treasurer'
p2684
F8.39049553837028
sS'treasures'
p2685
F8.39049553837028
sS'jordan'
p2686
F7.697348357810335
sS'(svdp)'
p2687
F8.39049553837028
sS'hotep'
p2688
F8.39049553837028
sS'ncb'
p2689
F8.39049553837028
sS'ltro'
p2690
F8.39049553837028
sS'grace'
p2691
F5.171619713502079
sS'apprentice'
p2692
F8.39049553837028
sS'king'
p2693
F7.00420117725039
sS'mclaughlin'
p2694
F8.39049553837028
sS'farming'
p2695
F7.697348357810335
sS'sta'
p2696
F8.39049553837028
sS'pc'
p2697
F8.39049553837028
sS'dte'
p2698
F7.29188324970217
sS'youth'
p2699
F4.312958094464561
sS'shalom'
p2700
F8.39049553837028
sS'marriage'
p2701
F7.697348357810335
sS'fishermen'
p2702
F8.39049553837028
sS'sister'
p2703
F8.39049553837028
sS'lendahand'
p2704
F8.39049553837028
sS'navigators'
p2705
F8.39049553837028
sS'charlotte'
p2706
F7.697348357810335
sS'motivation'
p2707
F8.39049553837028
sS'reunion'
p2708
F8.39049553837028
sS'ages'
p2709
F8.39049553837028
sS'kling'
p2710
F8.39049553837028
sS'affirmative'
p2711
F8.39049553837028
sS'maccrone'
p2712
F8.39049553837028
sS'neurosurgical'
p2713
F8.39049553837028
sS'warrenconnor'
p2714
F8.39049553837028
sS'my'
p2715
F6.598736069142225
sS'karl'
p2716
F8.39049553837028
sS'estrada'
p2717
F8.39049553837028
sS'paths'
p2718
F8.39049553837028
sS'wilson'
p2719
F7.29188324970217
sS'escapades'
p2720
F8.39049553837028
sS'judah'
p2721
F7.00420117725039
sS'self'
p2722
F7.00420117725039
sS'empowered'
p2723
F8.39049553837028
sS'officers'
p2724
F6.444585389314967
sS'sherwood'
p2725
F7.697348357810335
sS'maison'
p2726
F8.39049553837028
sS'detroitas'
p2727
F8.39049553837028
sS'ibew'
p2728
F8.39049553837028
sS'k9'
p2729
F8.39049553837028
sS'lipke'
p2730
F8.39049553837028
sS'prophets'
p2731
F8.39049553837028
sS'jwatt'
p2732
F8.39049553837028
sS'province'
p2733
F7.697348357810335
sS'play'
p2734
F8.39049553837028
sS'electric'
p2735
F8.39049553837028
sS'retired'
p2736
F7.697348357810335
sS'busby'
p2737
F8.39049553837028
sS'reach'
p2738
F7.697348357810335
sS'edison'
p2739
F6.598736069142225
sS'architects'
p2740
F7.00420117725039
sS'most'
p2741
F7.29188324970217
sS'assoc'
p2742
F7.697348357810335
sS'plan'
p2743
F5.299453085011964
sS'rho'
p2744
F7.697348357810335
sS'services'
p2745
F3.7461046392289075
sS'alpha'
p2746
F5.299453085011964
sS'kay'
p2747
F8.39049553837028
sS'zimmermannwolff'
p2748
F8.39049553837028
sS'mack'
p2749
F7.29188324970217
sS'achievement'
p2750
F7.29188324970217
sS'appraisers'
p2751
F8.39049553837028
sS'gleaners'
p2752
F7.697348357810335
sS'goodwill'
p2753
F7.00420117725039
sS'mobile'
p2754
F8.39049553837028
sS'seraphim'
p2755
F8.39049553837028
sS'mediation'
p2756
F7.697348357810335
sS'rockefeller'
p2757
F7.29188324970217
sS'wetmore'
p2758
F8.39049553837028
sS'charitable'
p2759
F4.58383304859996
sS'artistic'
p2760
F8.39049553837028
sS'northend'
p2761
F7.29188324970217
sS'cccf'
p2762
F8.39049553837028
sS'sector'
p2763
F7.697348357810335
sS'belle'
p2764
F6.78105762593618
sS'thomas'
p2765
F7.00420117725039
sS'040579'
p2766
F8.39049553837028
sS'golf'
p2767
F6.78105762593618
sS'gold'
p2768
F8.39049553837028
sS'cdc'
p2769
F6.78105762593618
sS'ehelping'
p2770
F8.39049553837028
sS'detriot'
p2771
F8.39049553837028
sS'wayside'
p2772
F8.39049553837028
sS'(bing)'
p2773
F8.39049553837028
sS'rivertown'
p2774
F8.39049553837028
sS'defender'
p2775
F7.29188324970217
sS'6203301'
p2776
F8.39049553837028
sS'bommunity'
p2777
F8.39049553837028
sS'impact'
p2778
F6.19327096103406
sS'cell'
p2779
F7.29188324970217
sS'duncan'
p2780
F8.39049553837028
sS'justice'
p2781
F5.7514382087550215
sS'ies'
p2782
F8.39049553837028
sS'dijana'
p2783
F8.39049553837028
sS'superfriends'
p2784
F8.39049553837028
sS'wayne'
p2785
F4.383162353137809
sS'generators'
p2786
F8.39049553837028
sS'kales'
p2787
F8.39049553837028
sS'equity'
p2788
F8.39049553837028
sS'8'
p2789
F8.39049553837028
sS'moses'
p2790
F7.697348357810335
sS'douglass'
p2791
F8.39049553837028
sS'boniface'
p2792
F8.39049553837028
sS'his'
p2793
F8.39049553837028
sS'triangle'
p2794
F7.697348357810335
sS'proliteracy'
p2795
F7.697348357810335
sS'luke'
p2796
F8.39049553837028
sS'express'
p2797
F8.39049553837028
sS'sunny'
p2798
F8.39049553837028
sS'reinvesting'
p2799
F8.39049553837028
sS'afsa'
p2800
F8.39049553837028
sS'b'
p2801
F5.99260026557191
sS'(usda)'
p2802
F8.39049553837028
sS'rest'
p2803
F7.697348357810335
sS'frischkorn'
p2804
F6.78105762593618
sS'amerighana'
p2805
F8.39049553837028
sS'babesworld'
p2806
F8.39049553837028
sS'grantmakers'
p2807
F8.39049553837028
sS'transitional'
p2808
F6.311053996690444
sS'a@stokes'
p2809
F8.39049553837028
sS'banking'
p2810
F7.697348357810335
sS'0124303'
p2811
F8.39049553837028
sS'bahais'
p2812
F8.39049553837028
sS'common'
p2813
F7.00420117725039
sS'allocations'
p2814
F8.39049553837028
sS'usctblack'
p2815
F8.39049553837028
sS'hype'
p2816
F7.697348357810335
sS'vincent'
p2817
F6.78105762593618
sS'river'
p2818
F7.00420117725039
sS'body'
p2819
F7.00420117725039
sS'redefine'
p2820
F8.39049553837028
sS'set'
p2821
F8.39049553837028
sS'art'
p2822
F5.7514382087550215
sS'ser'
p2823
F8.39049553837028
sS'maurice'
p2824
F7.697348357810335
sS'313'
p2825
F7.29188324970217
sS'overcomers'
p2826
F8.39049553837028
sS'mind'
p2827
F8.39049553837028
sS'vine'
p2828
F7.29188324970217
sS'jerome'
p2829
F8.39049553837028
sS'culture'
p2830
F8.39049553837028
sS'gleeor'
p2831
F8.39049553837028
sS'arc'
p2832
F7.697348357810335
sS'leslie'
p2833
F7.697348357810335
sS'are'
p2834
F7.697348357810335
sS'im'
p2835
F8.39049553837028
sS'tender'
p2836
F7.697348357810335
sS'explosion'
p2837
F8.39049553837028
sS'institutes'
p2838
F8.39049553837028
sS'2.0'
p2839
F7.697348357810335
sS'skill'
p2840
F8.39049553837028
sS'locals'
p2841
F8.39049553837028
sS'sharyland'
p2842
F8.39049553837028
sS'mckay'
p2843
F8.39049553837028
sS'bethany'
p2844
F6.78105762593618
sS'practice'
p2845
F8.39049553837028
sS'visiting'
p2846
F8.39049553837028
sS'sinaigrace'
p2847
F8.39049553837028
sS'anambra'
p2848
F8.39049553837028
sS'bornman'
p2849
F7.697348357810335
sS'unions'
p2850
F6.311053996690444
sS'beautification'
p2851
F8.39049553837028
sS'various'
p2852
F8.39049553837028
sS'sanctuaries'
p2853
F7.697348357810335
sS'rite'
p2854
F7.29188324970217
sS'alaqabah'
p2855
F8.39049553837028
sS'yoruba'
p2856
F8.39049553837028
sS'rita'
p2857
F8.39049553837028
sS'choose'
p2858
F8.39049553837028
sS'latin'
p2859
F7.29188324970217
sS'brush'
p2860
F7.697348357810335
sS'chpt'
p2861
F8.39049553837028
sS'brewing'
p2862
F8.39049553837028
sS'convida'
p2863
F8.39049553837028
sS'ephesus'
p2864
F8.39049553837028
sS'death'
p2865
F8.39049553837028
sS'mentoring'
p2866
F6.19327096103406
sS'thelma'
p2867
F8.39049553837028
sS'marilyn'
p2868
F8.39049553837028
sS'bride'
p2869
F7.29188324970217
sS'league'
p2870
F5.171619713502079
sS'c'
p2871
F4.835147476880866
sS'xceptional'
p2872
F8.39049553837028
sS'improved'
p2873
F6.78105762593618
sS'restaurant'
p2874
F7.697348357810335
sS'thou'
p2875
F8.39049553837028
sS'(ssa)'
p2876
F8.39049553837028
sS'annual'
p2877
F8.39049553837028
sS'galilee'
p2878
F7.697348357810335
sS'foreign'
p2879
F6.444585389314967
sS'sardis'
p2880
F8.39049553837028
sS'roman'
p2881
F7.697348357810335
sS'fraternity'
p2882
F6.444585389314967
sS'forgotten'
p2883
F8.39049553837028
sS'poverty'
p2884
F8.39049553837028
sS'whole'
p2885
F7.29188324970217
sS'messiah'
p2886
F6.78105762593618
sS'carelink'
p2887
F8.39049553837028
sS'mivote.org'
p2888
F8.39049553837028
sS'cakes'
p2889
F8.39049553837028
sS'elliot'
p2890
F7.697348357810335
sS'(more)'
p2891
F8.39049553837028
sS'jeff'
p2892
F8.39049553837028
sS'puritan'
p2893
F8.39049553837028
sS'03'
p2894
F7.697348357810335
sS'recycling'
p2895
F8.39049553837028
sS'darlene'
p2896
F8.39049553837028
sS'manners'
p2897
F8.39049553837028
sS'community'
p2898
F2.670183761762868
sS'(degc)'
p2899
F8.39049553837028
sS'tennessee'
p2900
F8.39049553837028
sS'simply'
p2901
F8.39049553837028
sS'changers'
p2902
F7.29188324970217
sS'church'
p2903
F1.96724857483676
sS'zeta'
p2904
F8.39049553837028
sS'tabneracle'
p2905
F8.39049553837028
sS'busters'
p2906
F7.697348357810335
sS'belt'
p2907
F7.697348357810335
sS'perspectives'
p2908
F8.39049553837028
sS'casa'
p2909
F7.697348357810335
sS'political'
p2910
F8.39049553837028
sS'burnette'
p2911
F8.39049553837028
sS'mikey'
p2912
F8.39049553837028
sS'strategy'
p2913
F7.697348357810335
sS'suburbs'
p2914
F8.39049553837028
sS'secret'
p2915
F7.697348357810335
sS'pf'
p2916
F7.697348357810335
sS'maintenance'
p2917
F8.39049553837028
sS'clinical'
p2918
F8.39049553837028
sS'pi'
p2919
F6.444585389314967
sS'meeting'
p2920
F7.697348357810335
sS'chandler'
p2921
F8.39049553837028
sS'brico'
p2922
F8.39049553837028
sS'treatment'
p2923
F7.697348357810335
sS'firm'
p2924
F8.39049553837028
sS'jesuit'
p2925
F7.29188324970217
sS'constructors'
p2926
F8.39049553837028
sS'flight'
p2927
F8.39049553837028
sS'sobriety'
p2928
F8.39049553837028
sS'fire'
p2929
F6.19327096103406
sS'philippine'
p2930
F8.39049553837028
sS'convert'
p2931
F8.39049553837028
sS'foodlab'
p2932
F8.39049553837028
sS'gap'
p2933
F8.39049553837028
sS'testment'
p2934
F8.39049553837028
sS'fund'
p2935
F3.586474493637023
sS'lives'
p2936
F7.29188324970217
sS'pediatricians'
p2937
F8.39049553837028
sS'towns'
p2938
F8.39049553837028
sS'educ'
p2939
F8.39049553837028
sS'independence'
p2940
F8.39049553837028
sS'evangelical'
p2941
F5.90558888858228
sS'pierce'
p2942
F8.39049553837028
sS'georgia'
p2943
F8.39049553837028
sS'unify'
p2944
F8.39049553837028
sS'engineeri'
p2945
F8.39049553837028
sS'solid'
p2946
F7.697348357810335
sS'warrant'
p2947
F8.39049553837028
sS'straight'
p2948
F8.39049553837028
sS'bill'
p2949
F8.39049553837028
sS'smile'
p2950
F8.39049553837028
sS'presbytery'
p2951
F7.697348357810335
sS'nanas'
p2952
F8.39049553837028
sS'franklinwright'
p2953
F7.697348357810335
sS'kick'
p2954
F7.697348357810335
sS'behavior'
p2955
F8.39049553837028
sS'pearls'
p2956
F7.697348357810335
sS'liebler'
p2957
F8.39049553837028
sS'leland'
p2958
F7.697348357810335
sS'engineers'
p2959
F6.598736069142225
sS'kingdom'
p2960
F6.0879104453762345
sS'30'
p2961
F8.39049553837028
sS'(ban)'
p2962
F8.39049553837028
sS'century'
p2963
F8.39049553837028
sS'enriching'
p2964
F8.39049553837028
sS'chass'
p2965
F8.39049553837028
sS'motors'
p2966
F7.00420117725039
sS'curtis'
p2967
F7.697348357810335
sS'lomax'
p2968
F8.39049553837028
sS'psi'
p2969
F6.311053996690444
sS'mott'
p2970
F8.39049553837028
sS'empowermen'
p2971
F8.39049553837028
sS'triple'
p2972
F7.697348357810335
sS'latinamerican'
p2973
F8.39049553837028
sS'aspects'
p2974
F8.39049553837028
sS'alliances'
p2975
F8.39049553837028
sS'kings'
p2976
F7.697348357810335
sS'robbies'
p2977
F8.39049553837028
sS'karoub'
p2978
F8.39049553837028
sS'chase'
p2979
F7.697348357810335
sS'shar'
p2980
F7.697348357810335
sS'raiders'
p2981
F8.39049553837028
sS'starlight'
p2982
F7.697348357810335
sS'grant'
p2983
F8.39049553837028
sS'butcher'
p2984
F8.39049553837028
sS'rules'
p2985
F8.39049553837028
sS'corridor'
p2986
F6.78105762593618
sS'peoples'
p2987
F6.19327096103406
sS'products'
p2988
F8.39049553837028
sS'ruth'
p2989
F7.29188324970217
sS'evangelistic'
p2990
F6.311053996690444
sS'daughters'
p2991
F7.00420117725039
sS'higher'
p2992
F7.00420117725039
sS'development'
p2993
F3.309091173385817
sS'temporary'
p2994
F7.697348357810335
sS'mountain'
p2995
F7.29188324970217
sS'keys'
p2996
F7.697348357810335
sS'comprehensive'
p2997
F8.39049553837028
sS'rusell'
p2998
F8.39049553837028
sS'aurelio'
p2999
F8.39049553837028
sS'waddles'
p3000
F8.39049553837028
sS'leaps'
p3001
F8.39049553837028
sS'purpose'
p3002
F7.697348357810335
sS'contractors'
p3003
F7.697348357810335
sS'cityscape'
p3004
F7.697348357810335
sS'ctn'
p3005
F8.39049553837028
sS'focal'
p3006
F8.39049553837028
sS'annunciation'
p3007
F8.39049553837028
sS'materna'
p3008
F8.39049553837028
sS'(mocad)'
p3009
F8.39049553837028
sS'magnus'
p3010
F8.39049553837028
sS'policylink'
p3011
F8.39049553837028
sS'person'
p3012
F8.39049553837028
sS'historic'
p3013
F6.444585389314967
sS'033090678297'
p3014
F8.39049553837028
sS'inspirational'
p3015
F7.697348357810335
sS'goodwills'
p3016
F8.39049553837028
sS'y'
p3017
F7.00420117725039
sS'organization'
p3018
F4.629295422676718
sS'prevention'
p3019
F7.00420117725039
sS'breastfeeding'
p3020
F8.39049553837028
sS'things'
p3021
F8.39049553837028
sS'alvin'
p3022
F8.39049553837028
sS'migratory'
p3023
F8.39049553837028
sS'schotanus'
p3024
F8.39049553837028
sS'woodward'
p3025
F6.19327096103406
sS'settlements'
p3026
F7.697348357810335
sS'merritt'
p3027
F8.39049553837028
sS'drummer'
p3028
F8.39049553837028
sS'merkaz'
p3029
F8.39049553837028
sS'kidspace'
p3030
F7.697348357810335
sS'elect'
p3031
F8.39049553837028
sS'alternative'
p3032
F7.00420117725039
sS'afro'
p3033
F8.39049553837028
sS'prince'
p3034
F8.39049553837028
sS'unto'
p3035
F7.697348357810335
sS'mccormick'
p3036
F8.39049553837028
sS'letting'
p3037
F8.39049553837028
sS'discipling'
p3038
F7.697348357810335
sS'm.l.'
p3039
F8.39049553837028
sS'helping'
p3040
F6.0879104453762345
sS'braude'
p3041
F8.39049553837028
sS'adrienne'
p3042
F8.39049553837028
sS'informal'
p3043
F8.39049553837028
sS'melinda'
p3044
F8.39049553837028
sS'workers'
p3045
F4.779577625726056
sS'cemetery'
p3046
F7.00420117725039
sS'roofers'
p3047
F7.29188324970217
sS'eager'
p3048
F8.39049553837028
sS'appellate'
p3049
F7.697348357810335
sS'parents'
p3050
F7.29188324970217
sS'homeland'
p3051
F8.39049553837028
sS'courtney'
p3052
F8.39049553837028
sS'born'
p3053
F7.697348357810335
sS'ferndale'
p3054
F8.39049553837028
sS'administrative'
p3055
F8.39049553837028
sS'heidelberg'
p3056
F7.697348357810335
sS'bin'
p3057
F8.39049553837028
sS'minerva'
p3058
F7.697348357810335
sS'siri'
p3059
F8.39049553837028
sS'emergency'
p3060
F7.00420117725039
sS'big'
p3061
F7.29188324970217
sS'rebound'
p3062
F8.39049553837028
sS'wives'
p3063
F8.39049553837028
sS'matters'
p3064
F8.39049553837028
sS'redeem'
p3065
F7.697348357810335
sS'hitters'
p3066
F8.39049553837028
sS'culturally'
p3067
F8.39049553837028
sS'aerospace'
p3068
F5.094658672365951
sS'wings'
p3069
F7.00420117725039
sS'projects'
p3070
F7.29188324970217
sS'ponds'
p3071
F8.39049553837028
sS'moriah'
p3072
F6.78105762593618
sS'd'
p3073
F5.825546180908743
sS'signal'
p3074
F7.697348357810335
sS'clay'
p3075
F8.39049553837028
sS'toyota'
p3076
F8.39049553837028
sS'chorus'
p3077
F7.29188324970217
sS'communications'
p3078
F8.39049553837028
sS'arthur'
p3079
F7.697348357810335
sS'the@lavere'
p3080
F8.39049553837028
sS'wolff'
p3081
F8.39049553837028
sS'tireman'
p3082
F8.39049553837028
sS'popular'
p3083
F8.39049553837028
sS'84874c69'
p3084
F8.39049553837028
sS'healthy'
p3085
F7.697348357810335
sS'crescendo'
p3086
F8.39049553837028
sS'parade'
p3087
F6.78105762593618
sS'diocese'
p3088
F8.39049553837028
sS'senate'
p3089
F8.39049553837028
sS'erma'
p3090
F8.39049553837028
sS'abundantly'
p3091
F8.39049553837028
sS'back'
p3092
F7.00420117725039
sS'bounce'
p3093
F8.39049553837028
sS'hartmann'
p3094
F8.39049553837028
sS'meditation'
p3095
F8.39049553837028
sS'economic'
p3096
F5.299453085011964
sS'palm'
p3097
F8.39049553837028
sS'mustang'
p3098
F8.39049553837028
sS'meda'
p3099
F8.39049553837028
sS'roth'
p3100
F8.39049553837028
sS'tuw'
p3101
F8.39049553837028
sS'reforesters'
p3102
F8.39049553837028
sS'providence'
p3103
F6.78105762593618
sS'lorraine'
p3104
F8.39049553837028
sS'koepke'
p3105
F8.39049553837028
sS'prog'
p3106
F8.39049553837028
sS'prof'
p3107
F8.39049553837028
sS'anne'
p3108
F8.39049553837028
sS'temple'
p3109
F3.805528059699708
sS'anna'
p3110
F8.39049553837028
sS'mutts'
p3111
F8.39049553837028
sS'be'
p3112
F7.29188324970217
sS'bg'
p3113
F8.39049553837028
sS'patient'
p3114
F8.39049553837028
sS'tabor'
p3115
F7.697348357810335
sS'300'
p3116
F7.29188324970217
sS'interpreters'
p3117
F8.39049553837028
sS'palmer'
p3118
F7.697348357810335
sS'continuing'
p3119
F8.39049553837028
sS'lakes'
p3120
F5.825546180908743
sS'stem'
p3121
F8.39049553837028
sS'juju'
p3122
F8.39049553837028
sS'beverly'
p3123
F8.39049553837028
sS'step'
p3124
F7.697348357810335
sS'distler'
p3125
F8.39049553837028
sS'assocaiton'
p3126
F8.39049553837028
sS'carol'
p3127
F7.697348357810335
sS'endtime'
p3128
F8.39049553837028
sS'by'
p3129
F7.697348357810335
sS'liggett'
p3130
F8.39049553837028
sS'faith'
p3131
F3.847200756100276
sS'wildlife'
p3132
F7.29188324970217
sS'inter'
p3133
F8.39049553837028
sS'neuropsychiatric'
p3134
F8.39049553837028
sS'hellenic'
p3135
F8.39049553837028
sS'entrepreneurs'
p3136
F7.697348357810335
sS'plaza'
p3137
F8.39049553837028
sS'sacrament'
p3138
F8.39049553837028
sS'jake'
p3139
F8.39049553837028
sS'trucking'
p3140
F8.39049553837028
sS'drama'
p3141
F8.39049553837028
sS'jaafar'
p3142
F8.39049553837028
sS'uawlear'
p3143
F8.39049553837028
sS'lieutenants'
p3144
F8.39049553837028
sS'womens'
p3145
F5.394763264816289
sS'gamma'
p3146
F6.311053996690444
sS'gospel'
p3147
F4.864135013754119
sS'inte'
p3148
F8.39049553837028
sS'repair'
p3149
F8.39049553837028
sS'clinton'
p3150
F7.697348357810335
sS'0840197'
p3151
F8.39049553837028
sS'garbage'
p3152
F8.39049553837028
sS'viola'
p3153
F7.697348357810335
sS'auntie'
p3154
F8.39049553837028
sS'intl'
p3155
F6.598736069142225
sS'into'
p3156
F7.697348357810335
sS'johns'
p3157
F7.00420117725039
sS'governmemt'
p3158
F8.39049553837028
sS'jesucristo'
p3159
F8.39049553837028
sS'dame'
p3160
F8.39049553837028
sS'momma'
p3161
F8.39049553837028
sS'because'
p3162
F8.39049553837028
sS'220170005'
p3163
F8.39049553837028
sS'payment'
p3164
F8.39049553837028
sS'(nih)'
p3165
F8.39049553837028
sS'pace'
p3166
F8.39049553837028
sS'marie'
p3167
F8.39049553837028
sS'renewal'
p3168
F7.697348357810335
sS'rucks'
p3169
F8.39049553837028
sS'elbethel'
p3170
F8.39049553837028
sS'hechzakta'
p3171
F8.39049553837028
sS'accountability'
p3172
F8.39049553837028
sS'organizationwaco'
p3173
F8.39049553837028
sS'consultation'
p3174
F8.39049553837028
sS'britishamerican'
p3175
F8.39049553837028
sS'heritage'
p3176
F6.311053996690444
sS'forward'
p3177
F7.697348357810335
sS'avengers'
p3178
F8.39049553837028
sS'sinai'
p3179
F7.697348357810335
sS'postretirement'
p3180
F8.39049553837028
sS'moralsmen'
p3181
F8.39049553837028
sS'jewish'
p3182
F6.598736069142225
sS'moema'
p3183
F8.39049553837028
sS'motivational'
p3184
F8.39049553837028
sS'boys'
p3185
F6.598736069142225
sS'rackham'
p3186
F7.697348357810335
sS'getty'
p3187
F8.39049553837028
sS'library'
p3188
F6.444585389314967
sS'delta'
p3189
F5.7514382087550215
sS'russian'
p3190
F7.29188324970217
sS'line'
p3191
F8.39049553837028
sS'junior'
p3192
F7.00420117725039
sS'hilberry'
p3193
F8.39049553837028
sS'hair'
p3194
F8.39049553837028
sS'rogers'
p3195
F8.39049553837028
sS'elks'
p3196
F7.00420117725039
sS'dog'
p3197
F8.39049553837028
sS'angels'
p3198
F7.29188324970217
sS'liveable'
p3199
F8.39049553837028
sS'up'
p3200
F6.598736069142225
sS'us'
p3201
F6.598736069142225
sS'fdn'
p3202
F7.29188324970217
sS'craig'
p3203
F7.697348357810335
sS'redeemer'
p3204
F7.00420117725039
sS'delray'
p3205
F7.29188324970217
sS'maravatio'
p3206
F8.39049553837028
sS'ilitch'
p3207
F7.697348357810335
sS'ud'
p3208
F8.39049553837028
sS'autonomous'
p3209
F8.39049553837028
sS'loving'
p3210
F7.29188324970217
sS'ua'
p3211
F6.311053996690444
sS'websters'
p3212
F8.39049553837028
sS'associated'
p3213
F7.697348357810335
sS'microenterprise'
p3214
F7.697348357810335
sS'pilgrim'
p3215
F7.697348357810335
sS'm'
p3216
F5.132399000348798
sS'undeminational'
p3217
F8.39049553837028
sS'influence'
p3218
F8.39049553837028
sS'dennard'
p3219
F7.697348357810335
sS'char'
p3220
F7.697348357810335
sS'dermatology'
p3221
F8.39049553837028
sS'engineering'
p3222
F6.598736069142225
sS'associates'
p3223
F6.78105762593618
sS'chat'
p3224
F8.39049553837028
sS'millan'
p3225
F7.697348357810335
sS'cafe'
p3226
F7.697348357810335
sS'graham'
p3227
F8.39049553837028
sS'48226)'
p3228
F7.697348357810335
sS'rainbow'
p3229
F8.39049553837028
sS'peter'
p3230
F6.0879104453762345
sS'grs'
p3231
F8.39049553837028
sS'anthology'
p3232
F8.39049553837028
sS'humanities'
p3233
F8.39049553837028
sS'uad'
p3234
F8.39049553837028
sS'joan'
p3235
F8.39049553837028
sS'edwards'
p3236
F8.39049553837028
sS'backs'
p3237
F8.39049553837028
sS'nas'
p3238
F8.39049553837028
sS'electrical'
p3239
F7.697348357810335
sS'ellen'
p3240
F7.697348357810335
sS'gogetters'
p3241
F8.39049553837028
sS'scraps'
p3242
F7.697348357810335
sS'tougaloo'
p3243
F8.39049553837028
sS'chester'
p3244
F8.39049553837028
sS'ctr'
p3245
F8.39049553837028
sS'everybodys'
p3246
F8.39049553837028
sS'mustard'
p3247
F8.39049553837028
sS'beginnings'
p3248
F8.39049553837028
sS'usgbc'
p3249
F8.39049553837028
sS'pape'
p3250
F8.39049553837028
sS'leni'
p3251
F8.39049553837028
sS'dffa'
p3252
F8.39049553837028
sS'william'
p3253
F5.90558888858228
sS'restoration'
p3254
F5.99260026557191
sS'crain'
p3255
F8.39049553837028
sS'mi*voice'
p3256
F8.39049553837028
sS'fishes'
p3257
F8.39049553837028
sS'fisher'
p3258
F7.29188324970217
sS'meals'
p3259
F7.29188324970217
sS'pottery'
p3260
F8.39049553837028
sS'land'
p3261
F6.444585389314967
sS'e'
p3262
F4.9892981567081245
sS'inforum'
p3263
F8.39049553837028
sS'scotch'
p3264
F8.39049553837028
sS'wellbeing'
p3265
F8.39049553837028
sS'bankers'
p3266
F8.39049553837028
sS'constance'
p3267
F8.39049553837028
sS'neareast'
p3268
F8.39049553837028
sS'2000'
p3269
F7.697348357810335
sS'worekers'
p3270
F8.39049553837028
sS'wdetfm'
p3271
F8.39049553837028
sS'psychiatry'
p3272
F8.39049553837028
sS'fresh'
p3273
F7.29188324970217
sS'buffalo'
p3274
F7.00420117725039
sS'enrichment'
p3275
F7.29188324970217
sS'makerspace'
p3276
F8.39049553837028
sS'ikebana'
p3277
F8.39049553837028
sS'code'
p3278
F7.697348357810335
sS'jason'
p3279
F8.39049553837028
sS'cde'
p3280
F7.697348357810335
sS'ellias'
p3281
F8.39049553837028
sS'architectscontractors'
p3282
F8.39049553837028
sS'cynthia'
p3283
F8.39049553837028
sS'edo'
p3284
F8.39049553837028
sS'(mcaca)'
p3285
F8.39049553837028
sS'farms'
p3286
F8.39049553837028
sS'sanctuary'
p3287
F7.00420117725039
sS'winds'
p3288
F7.697348357810335
sS'servants'
p3289
F8.39049553837028
sS'centers'
p3290
F6.19327096103406
sS'cody'
p3291
F7.697348357810335
sS'simon'
p3292
F8.39049553837028
sS'anointed'
p3293
F7.697348357810335
sS'iii'
p3294
F6.78105762593618
sS'mosque'
p3295
F7.697348357810335
sS'young'
p3296
F5.617906816130499
sS'cluw'
p3297
F7.697348357810335
sS'literary'
p3298
F6.78105762593618
sS'chapt'
p3299
F8.39049553837028
sS'helps'
p3300
F8.39049553837028
sS'hospitalers'
p3301
F8.39049553837028
sS'maryland'
p3302
F8.39049553837028
sS'women'
p3303
F5.345973100646857
sS'resources'
p3304
F6.311053996690444
sS'brigade'
p3305
F8.39049553837028
sS'queen'
p3306
F6.598736069142225
sS'garden'
p3307
F6.598736069142225
sS'tribunal'
p3308
F8.39049553837028
sS'maat'
p3309
F8.39049553837028
sS'burton'
p3310
F8.39049553837028
sS'artserve'
p3311
F8.39049553837028
sS'miriams'
p3312
F8.39049553837028
sS'greenway'
p3313
F8.39049553837028
sS'hamtramck'
p3314
F7.697348357810335
sS'isaiah'
p3315
F8.39049553837028
sS'clement'
p3316
F8.39049553837028
sS'tri'
p3317
F8.39049553837028
sS'northwestern'
p3318
F7.697348357810335
sS'recreation'
p3319
F7.00420117725039
sS'magic'
p3320
F8.39049553837028
sS'harbor'
p3321
F8.39049553837028
sS'knight'
p3322
F7.29188324970217
sS'notes'
p3323
F8.39049553837028
sS'compassionate'
p3324
F7.697348357810335
sS'michael'
p3325
F7.697348357810335
sS'restoring'
p3326
F8.39049553837028
sS'reinstitutionalization'
p3327
F8.39049553837028
sS'barbara'
p3328
F6.78105762593618
sS'havens'
p3329
F8.39049553837028
sS'carls'
p3330
F7.697348357810335
sS'carter'
p3331
F8.39049553837028
sS'educators'
p3332
F7.697348357810335
sS'scientist'
p3333
F8.39049553837028
sS'boots'
p3334
F8.39049553837028
sS'rivers'
p3335
F8.39049553837028
sS'speyer'
p3336
F8.39049553837028
sS'recruitment'
p3337
F8.39049553837028
sS'communityof'
p3338
F8.39049553837028
sS'traveling'
p3339
F8.39049553837028
sS'go'
p3340
F7.29188324970217
sS'warrendale'
p3341
F8.39049553837028
sS'sankofa'
p3342
F7.697348357810335
sS'elise'
p3343
F8.39049553837028
sS'makers'
p3344
F8.39049553837028
sS'depression'
p3345
F8.39049553837028
sS'victor'
p3346
F7.697348357810335
sS'hourly'
p3347
F7.697348357810335
sS'sausage'
p3348
F8.39049553837028
sS'business'
p3349
F5.394763264816289
sS'faithville'
p3350
F8.39049553837028
sS'morse'
p3351
F8.39049553837028
sS'giving'
p3352
F8.39049553837028
sS'fine'
p3353
F7.29188324970217
sS'assisted'
p3354
F8.39049553837028
sS'diamante'
p3355
F8.39049553837028
sS'gladys'
p3356
F8.39049553837028
sS'access'
p3357
F6.78105762593618
sS'indian'
p3358
F6.444585389314967
sS'capital'
p3359
F7.697348357810335
sS'collins'
p3360
F8.39049553837028
sS'firms'
p3361
F8.39049553837028
sS'bird'
p3362
F7.29188324970217
sS'chasers'
p3363
F8.39049553837028
sS'lutheran'
p3364
F4.439251819788852
sS'mcmurray'
p3365
F8.39049553837028
sS'lee'
p3366
F6.78105762593618
sS'exchange'
p3367
F7.697348357810335
sS'musicfest'
p3368
F8.39049553837028
sS'commercial'
p3369
F8.39049553837028
sS'corners'
p3370
F8.39049553837028
sS'ozi'
p3371
F8.39049553837028
sS'let'
p3372
F8.39049553837028
sS'healing'
p3373
F5.90558888858228
sS'horse'
p3374
F8.39049553837028
sS'others'
p3375
F8.39049553837028
sS'sing'
p3376
F8.39049553837028
sS'safer'
p3377
F7.697348357810335
sS'imre'
p3378
F8.39049553837028
sS'thriveology'
p3379
F8.39049553837028
sS'great'
p3380
F5.617906816130499
sS'metro'
p3381
F5.557282194314064
sS'rdr'
p3382
F8.39049553837028
sS'33'
p3383
F8.39049553837028
sS'eastside'
p3384
F6.0879104453762345
sS'shipley'
p3385
F8.39049553837028
sS'murdered'
p3386
F8.39049553837028
sS'35'
p3387
F8.39049553837028
sS'hfii'
p3388
F8.39049553837028
sS'sword'
p3389
F8.39049553837028
sS'residents'
p3390
F8.39049553837028
sS'lazet'
p3391
F8.39049553837028
sS'salvation'
p3392
F7.00420117725039
sS'honor'
p3393
F6.598736069142225
sS'holmes'
p3394
F7.697348357810335
sS'lorimer'
p3395
F8.39049553837028
sS'clark'
p3396
F7.00420117725039
sS'lords'
p3397
F8.39049553837028
sS'win'
p3398
F8.39049553837028
sS'manna'
p3399
F7.697348357810335
sS'casualty'
p3400
F8.39049553837028
sS'foundat'
p3401
F8.39049553837028
sS'integrations'
p3402
F8.39049553837028
sS'private'
p3403
F6.78105762593618
sS'mariners'
p3404
F7.29188324970217
sS'hardy'
p3405
F8.39049553837028
sS'artspectrum'
p3406
F8.39049553837028
sS'motor'
p3407
F5.90558888858228
sS'apc'
p3408
F8.39049553837028
sS'mens'
p3409
F8.39049553837028
sS'kundig'
p3410
F8.39049553837028
sS'gateway'
p3411
F7.29188324970217
sS'fee'
p3412
F7.29188324970217
sS'from'
p3413
F6.598736069142225
sS'figure'
p3414
F8.39049553837028
sS'usa'
p3415
F5.825546180908743
sS'&'
p3416
F3.1864888512934844
sS'chi'
p3417
F6.78105762593618
sS'ministers'
p3418
F7.29188324970217
sS'next'
p3419
F7.00420117725039
sS'chp'
p3420
F8.39049553837028
sS'counties'
p3421
F7.697348357810335
sS'tehillim'
p3422
F8.39049553837028
sS'butler'
p3423
F7.697348357810335
sS'toy'
p3424
F8.39049553837028
sS'monae'
p3425
F8.39049553837028
sS'conj'
p3426
F8.39049553837028
sS'ktw'
p3427
F8.39049553837028
sS'pencil'
p3428
F8.39049553837028
sS'brems'
p3429
F8.39049553837028
sS'journalists'
p3430
F7.697348357810335
sS'biblical'
p3431
F8.39049553837028
sS'porch'
p3432
F8.39049553837028
sS'ressurection'
p3433
F8.39049553837028
sS'the@redeemed'
p3434
F8.39049553837028
sS'waterproofers'
p3435
F8.39049553837028
sS'payne'
p3436
F8.39049553837028
sS'lodge'
p3437
F8.39049553837028
sS'chichi'
p3438
F8.39049553837028
sS'train'
p3439
F8.39049553837028
sS'rabbit'
p3440
F8.39049553837028
sS'entwined'
p3441
F8.39049553837028
sS'harvest'
p3442
F6.598736069142225
sS'circle'
p3443
F7.00420117725039
sS'charity'
p3444
F6.0879104453762345
sS'kevins'
p3445
F8.39049553837028
sS'palabra'
p3446
F8.39049553837028
sS'alim'
p3447
F8.39049553837028
sS'f'
p3448
F6.444585389314967
sS'gabriel'
p3449
F7.00420117725039
sS'challenge'
p3450
F7.697348357810335
sS'maronite'
p3451
F8.39049553837028
sS'londen'
p3452
F8.39049553837028
sS'praise'
p3453
F5.7514382087550215
sS'nurture'
p3454
F8.39049553837028
sS'lutheren'
p3455
F8.39049553837028
sS'rehabilitation'
p3456
F6.444585389314967
sS'spiritial'
p3457
F8.39049553837028
sS'berean'
p3458
F7.29188324970217
sS'control'
p3459
F8.39049553837028
sS'tau'
p3460
F6.598736069142225
sS'perfecting'
p3461
F6.78105762593618
sS'patrol'
p3462
F8.39049553837028
sS'shepherd'
p3463
F8.39049553837028
sS'teamster'
p3464
F8.39049553837028
sS'matson'
p3465
F8.39049553837028
sS'high'
p3466
F5.557282194314064
sS'angel'
p3467
F7.29188324970217
sS'blvd'
p3468
F8.39049553837028
sS'sokolof'
p3469
F8.39049553837028
sS'interdenominational'
p3470
F7.697348357810335
sS'agape'
p3471
F6.598736069142225
sS'bootcamp'
p3472
F8.39049553837028
sS'educational'
p3473
F5.023199708383806
sS'united'
p3474
F3.9131587238920735
sS'democracy'
p3475
F8.39049553837028
sS'sit'
p3476
F8.39049553837028
sS'alkebulan'
p3477
F7.697348357810335
sS'bushnell'
p3478
F7.697348357810335
sS'boxing'
p3479
F7.697348357810335
sS'poetry'
p3480
F7.697348357810335
sS'afc'
p3481
F8.39049553837028
sS'regions'
p3482
F8.39049553837028
sS'brian'
p3483
F8.39049553837028
sS'haight'
p3484
F8.39049553837028
sS'forest'
p3485
F7.29188324970217
sS'animal'
p3486
F8.39049553837028
sS'aft'
p3487
F7.697348357810335
sS'(600'
p3488
F7.697348357810335
sS'gallo'
p3489
F8.39049553837028
sS'dunamis'
p3490
F7.697348357810335
sS'usnapbac'
p3491
F8.39049553837028
sS'edalene'
p3492
F8.39049553837028
sS'farm'
p3493
F7.697348357810335
sS'watch'
p3494
F8.39049553837028
sS'waters'
p3495
F8.39049553837028
sS'act'
p3496
F8.39049553837028
sS'collection'
p3497
F8.39049553837028
sS'ronald'
p3498
F7.697348357810335
sS'abuse'
p3499
F8.39049553837028
sS'spaulding'
p3500
F8.39049553837028
sS'leisure'
p3501
F8.39049553837028
sS'interventional'
p3502
F8.39049553837028
sS'charitableprivate'
p3503
F8.39049553837028
sS'marrow'
p3504
F8.39049553837028
sS'hawk'
p3505
F8.39049553837028
sS'colonnades'
p3506
F8.39049553837028
sS'minton'
p3507
F8.39049553837028
sS'associations'
p3508
F7.697348357810335
sS'readiness'
p3509
F8.39049553837028
sS'mayson'
p3510
F8.39049553837028
sS'furniss'
p3511
F8.39049553837028
sS'ponyride'
p3512
F8.39049553837028
sS'light'
p3513
F5.7514382087550215
sS'bing'
p3514
F8.39049553837028
sS'many'
p3515
F8.39049553837028
sS'lines'
p3516
F8.39049553837028
sS'rhiza'
p3517
F8.39049553837028
sS'chief'
p3518
F8.39049553837028
sS'advocates'
p3519
F6.78105762593618
sS'issp'
p3520
F8.39049553837028
sS'agenda'
p3521
F8.39049553837028
sS'healthcare'
p3522
F7.29188324970217
sS'addiction'
p3523
F7.29188324970217
sS'volunteers'
p3524
F7.697348357810335
sS'transformation'
p3525
F7.29188324970217
sS'galaxe'
p3526
F8.39049553837028
sS'reuter'
p3527
F8.39049553837028
sS'indo'
p3528
F7.697348357810335
sS'borrower'
p3529
F8.39049553837028
sS'avraham'
p3530
F8.39049553837028
sS'elim'
p3531
F8.39049553837028
sS'insight'
p3532
F8.39049553837028
sS'02241999'
p3533
F8.39049553837028
sS'ladies'
p3534
F6.598736069142225
sS'islamia'
p3535
F8.39049553837028
sS'inaugural'
p3536
F8.39049553837028
sS'pruett'
p3537
F8.39049553837028
sS'stoppers'
p3538
F8.39049553837028
sS'motorcycle'
p3539
F7.29188324970217
sS'agricultural'
p3540
F5.171619713502079
sS'seiu'
p3541
F8.39049553837028
sS'fortunate'
p3542
F7.697348357810335
sS'ackermans'
p3543
F8.39049553837028
sS'hunter'
p3544
F8.39049553837028
sS'warren'
p3545
F7.697348357810335
sS'industries'
p3546
F7.29188324970217
sS'write'
p3547
F8.39049553837028
sS'outer'
p3548
F7.697348357810335
sS'la'
p3549
F8.39049553837028
sS'chosen'
p3550
F8.39049553837028
sS'lo'
p3551
F8.39049553837028
sS'glee'
p3552
F8.39049553837028
sS'surgeons'
p3553
F7.697348357810335
sS'leci'
p3554
F8.39049553837028
sS'acres'
p3555
F8.39049553837028
sS'tyrone'
p3556
F8.39049553837028
sS'winners'
p3557
F8.39049553837028
sS'biomedical'
p3558
F8.39049553837028
sS'mckeen'
p3559
F8.39049553837028
sS'mitchell'
p3560
F7.697348357810335
sS'alexander'
p3561
F8.39049553837028
sS'shgd'
p3562
F8.39049553837028
sS'spreading'
p3563
F8.39049553837028
sS'lx'
p3564
F8.39049553837028
sS'usub'
p3565
F8.39049553837028
sS'dad'
p3566
F8.39049553837028
sS'physicians'
p3567
F8.39049553837028
sS'designs'
p3568
F8.39049553837028
sS'greater'
p3569
F3.9245874197156962
sS'orthodox'
p3570
F6.444585389314967
sS'auto'
p3571
F5.058291028195076
sS'afriqaid'
p3572
F8.39049553837028
sS'prevision'
p3573
F8.39049553837028
sS'ferguson'
p3574
F8.39049553837028
sS'h.'
p3575
F7.29188324970217
sS'hands'
p3576
F6.311053996690444
sS'front'
p3577
F8.39049553837028
sS'impaired'
p3578
F7.697348357810335
sS'kindness'
p3579
F7.697348357810335
sS'class'
p3580
F8.39049553837028
sS'day'
p3581
F5.617906816130499
sS'6842028300'
p3582
F8.39049553837028
sS'literacy'
p3583
F6.311053996690444
sS'canaan'
p3584
F8.39049553837028
sS'masters'
p3585
F8.39049553837028
sS'pembury'
p3586
F8.39049553837028
sS'l.'
p3587
F7.29188324970217
sS'university'
p3588
F4.561854141881184
sS'guard'
p3589
F8.39049553837028
sS'pathway'
p3590
F7.29188324970217
sS'africian'
p3591
F8.39049553837028
sS'truth'
p3592
F5.132399000348798
sS'stratford'
p3593
F7.00420117725039
sS'feldman'
p3594
F8.39049553837028
sS'prevailing'
p3595
F7.697348357810335
sS'commonwealth'
p3596
F7.697348357810335
sS'nyiso'
p3597
F8.39049553837028
sS'outloud'
p3598
F8.39049553837028
sS'doing'
p3599
F8.39049553837028
sS'timeless'
p3600
F8.39049553837028
sS'artists'
p3601
F6.311053996690444
sS'sergeants'
p3602
F8.39049553837028
sS'pantry'
p3603
F7.29188324970217
sS'society'
p3604
F4.142000296320921
sS'books'
p3605
F7.697348357810335
sS'agricultura'
p3606
F8.39049553837028
sS'our'
p3607
F5.446056559203839
sS'80'
p3608
F7.697348357810335
sS'transitions'
p3609
F8.39049553837028
sS'agriculture'
p3610
F7.697348357810335
sS'out'
p3611
F7.00420117725039
sS'photodocumentary'
p3612
F8.39049553837028
sS'nondenominational'
p3613
F6.78105762593618
sS'matrix'
p3614
F7.00420117725039
sS'entertainment'
p3615
F7.29188324970217
sS'cerebral'
p3616
F8.39049553837028
sS'res'
p3617
F8.39049553837028
sS'hyman'
p3618
F8.39049553837028
sS'your'
p3619
F7.697348357810335
sS'playground'
p3620
F8.39049553837028
sS'siena'
p3621
F8.39049553837028
sS'huhlein'
p3622
F8.39049553837028
sS'lattin'
p3623
F8.39049553837028
sS'intervention'
p3624
F7.697348357810335
sS'cause'
p3625
F7.697348357810335
sS'integrated'
p3626
F8.39049553837028
sS'red'
p3627
F7.697348357810335
sS'petrellis'
p3628
F8.39049553837028
sS'wadsworth'
p3629
F8.39049553837028
sS'pere'
p3630
F8.39049553837028
sS'unde'
p3631
F8.39049553837028
sS'coette'
p3632
F8.39049553837028
sS'zoological'
p3633
F8.39049553837028
sS'frank'
p3634
F8.39049553837028
sS'harriett'
p3635
F8.39049553837028
sS'loyola'
p3636
F7.29188324970217
sS'maree'
p3637
F8.39049553837028
sS'coptic'
p3638
F8.39049553837028
sS'3151'
p3639
F8.39049553837028
sS'jill'
p3640
F8.39049553837028
sS'york'
p3641
F7.00420117725039
sS'philip'
p3642
F8.39049553837028
sS'princess'
p3643
F8.39049553837028
sS'adolescent'
p3644
F8.39049553837028
sS'g'
p3645
F5.825546180908743
sS'sustainability'
p3646
F8.39049553837028
sS'herman'
p3647
F8.39049553837028
sS'ukrainianamerican'
p3648
F8.39049553837028
sS'sarbo'
p3649
F8.39049553837028
sS'times'
p3650
F8.39049553837028
sS'wyandotte'
p3651
F8.39049553837028
sS'allied'
p3652
F7.29188324970217
sS'serenity'
p3653
F8.39049553837028
sS'ltd'
p3654
F6.78105762593618
sS'housing'
p3655
F4.231612455010608
sS'south'
p3656
F7.697348357810335
sS'kendall'
p3657
F7.697348357810335
sS'piney'
p3658
F8.39049553837028
sS'finest'
p3659
F8.39049553837028
sS'evans'
p3660
F8.39049553837028
sS'powerful'
p3661
F8.39049553837028
sS'realtors'
p3662
F8.39049553837028
sS'jesus'
p3663
F4.956508333885133
sS'facility'
p3664
F8.39049553837028
sS'walter'
p3665
F7.697348357810335
sS'un'
p3666
F8.39049553837028
sS'ties'
p3667
F8.39049553837028
sS'probation'
p3668
F8.39049553837028
sS'hops'
p3669
F8.39049553837028
sS'quality'
p3670
F7.00420117725039
sS'long'
p3671
F8.39049553837028
sS'sharon'
p3672
F7.697348357810335
sS'management'
p3673
F6.444585389314967
sS'mozellas'
p3674
F8.39049553837028
sS'festival'
p3675
F6.311053996690444
sS'33b006006'
p3676
F8.39049553837028
sS'devils'
p3677
F8.39049553837028
sS'system'
p3678
F6.311053996690444
sS'relations'
p3679
F8.39049553837028
sS'ealy'
p3680
F8.39049553837028
sS'roche'
p3681
F8.39049553837028
sS'straub'
p3682
F8.39049553837028
sS'bosco'
p3683
F7.697348357810335
sS'enforcement'
p3684
F7.697348357810335
sS'gear'
p3685
F8.39049553837028
sS'tannahill'
p3686
F8.39049553837028
sS'adoptaplot'
p3687
F8.39049553837028
sS'academy'
p3688
F5.171619713502079
sS'lou'
p3689
F8.39049553837028
sS'negro'
p3690
F7.00420117725039
sS'melinese'
p3691
F8.39049553837028
sS'environmental'
p3692
F5.99260026557191
sS'masjid'
p3693
F6.78105762593618
sS'attanasio'
p3694
F8.39049553837028
sS'carsons'
p3695
F8.39049553837028
sS'natural'
p3696
F8.39049553837028
sS'distinction'
p3697
F7.697348357810335
sS'elite'
p3698
F8.39049553837028
sS'haven'
p3699
F8.39049553837028
sS'zones'
p3700
F8.39049553837028
sS'drhuhc'
p3701
F8.39049553837028
sS'ara'
p3702
F8.39049553837028
sS'see'
p3703
F7.697348357810335
sS'patients'
p3704
F8.39049553837028
sS'defense'
p3705
F6.78105762593618
sS'psalm'
p3706
F8.39049553837028
sS'osteoporosis'
p3707
F8.39049553837028
sS'referral'
p3708
F8.39049553837028
sS'sculpture'
p3709
F8.39049553837028
sS'bethlehem'
p3710
F6.78105762593618
sS'l.i.f.t.'
p3711
F8.39049553837028
sS'partnership'
p3712
F6.19327096103406
sS'hopgood'
p3713
F8.39049553837028
sS'nextenergy'
p3714
F7.697348357810335
sS'naomi'
p3715
F8.39049553837028
sS'102nd'
p3716
F8.39049553837028
sS'need'
p3717
F7.00420117725039
sS'mathilda'
p3718
F8.39049553837028
sS'(mna)'
p3719
F8.39049553837028
sS'dementia'
p3720
F8.39049553837028
sS'counselors'
p3721
F8.39049553837028
sS'catholic'
p3722
F5.7514382087550215
sS'ark'
p3723
F7.00420117725039
sS'dallas'
p3724
F8.39049553837028
sS'prismatic'
p3725
F8.39049553837028
sS'lasalle'
p3726
F8.39049553837028
sS'agency'
p3727
F5.617906816130499
sS'j&g'
p3728
F8.39049553837028
sS'ecumenical'
p3729
F7.29188324970217
sS'322'
p3730
F8.39049553837028
sS'chilant'
p3731
F8.39049553837028
sS'frontline'
p3732
F8.39049553837028
sS'babes'
p3733
F7.697348357810335
sS'latino'
p3734
F7.29188324970217
sS'pharmacist'
p3735
F8.39049553837028
sS'plowshares'
p3736
F7.697348357810335
sS'werks'
p3737
F8.39049553837028
sS'grandale'
p3738
F8.39049553837028
sS'groote'
p3739
F8.39049553837028
sS'centre'
p3740
F8.39049553837028
sS'collaboration'
p3741
F8.39049553837028
sS'sewing'
p3742
F8.39049553837028
sS'0388'
p3743
F8.39049553837028
sS'accountants'
p3744
F7.697348357810335
sS'congregational'
p3745
F6.19327096103406
sS'connected'
p3746
F8.39049553837028
sS'sfi'
p3747
F8.39049553837028
sS'emancipation'
p3748
F8.39049553837028
sS'hagelshaw'
p3749
F8.39049553837028
sS'gallery'
p3750
F7.697348357810335
sS'administrators'
p3751
F7.697348357810335
sS'ckm'
p3752
F8.39049553837028
sS'josaphats'
p3753
F8.39049553837028
sS'littlefield'
p3754
F8.39049553837028
sS'frederick'
p3755
F6.78105762593618
sS'disease'
p3756
F7.697348357810335
sS'waldorf'
p3757
F7.29188324970217
sS'se'
p3758
F8.39049553837028
sS'tzaddi'
p3759
F8.39049553837028
sS'mechanical'
p3760
F7.697348357810335
sS'gesu'
p3761
F8.39049553837028
sS'(compas)'
p3762
F8.39049553837028
sS'leasehold'
p3763
F7.697348357810335
sS'marthas'
p3764
F8.39049553837028
sS'scotts'
p3765
F8.39049553837028
sS'dba'
p3766
F7.29188324970217
sS'burners'
p3767
F8.39049553837028
sS'charles'
p3768
F6.444585389314967
sS'bowman'
p3769
F8.39049553837028
sS'planning'
p3770
F8.39049553837028
sS'cuttime'
p3771
F8.39049553837028
sS'bretheren'
p3772
F8.39049553837028
sS'rouge'
p3773
F7.29188324970217
sS'dorothy'
p3774
F8.39049553837028
sS'soldiers'
p3775
F7.29188324970217
sS'fear'
p3776
F8.39049553837028
sS'enviromental'
p3777
F8.39049553837028
sS'toastmasters'
p3778
F5.68244533726807
sS'staff'
p3779
F6.78105762593618
sS'partners'
p3780
F7.697348357810335
sS'inspiring'
p3781
F8.39049553837028
sS'coloring'
p3782
F8.39049553837028
sS'pastoral'
p3783
F7.29188324970217
sS'knowledge'
p3784
F7.29188324970217
sS'sheriff'
p3785
F8.39049553837028
sS'jay'
p3786
F8.39049553837028
sS'fiberglass'
p3787
F8.39049553837028
sS'aliciaas'
p3788
F8.39049553837028
sS'combs'
p3789
F8.39049553837028
sS'betse'
p3790
F8.39049553837028
sS'challenges'
p3791
F8.39049553837028
sS'salvage'
p3792
F8.39049553837028
sS'heavenly'
p3793
F7.697348357810335
sS'brighter'
p3794
F7.697348357810335
sS'jam'
p3795
F7.697348357810335
sS'filmer'
p3796
F8.39049553837028
sS'employee'
p3797
F8.39049553837028
sS'local'
p3798
F6.78105762593618
sS'hope'
p3799
F4.956508333885133
sS'jacqueline'
p3800
F8.39049553837028
sS'righteousness'
p3801
F7.697348357810335
sS'move'
p3802
F7.29188324970217
sS'pets'
p3803
F8.39049553837028
sS'lynn'
p3804
F8.39049553837028
sS'photography'
p3805
F8.39049553837028
sS'asso'
p3806
F8.39049553837028
sS'puppetart'
p3807
F7.697348357810335
sS'nidhca'
p3808
F8.39049553837028
sS'joint'
p3809
F7.29188324970217
sS'ophthalmology'
p3810
F8.39049553837028
sS'dmc'
p3811
F7.29188324970217
sS'churchesmetropolitan'
p3812
F8.39049553837028
sS'coordinating'
p3813
F8.39049553837028
sS'lahti'
p3814
F8.39049553837028
sS'cityspotters'
p3815
F8.39049553837028
sS'gray'
p3816
F8.39049553837028
sS'evolution'
p3817
F8.39049553837028
sS'dps'
p3818
F8.39049553837028
sS'glory'
p3819
F6.78105762593618
sS'organ'
p3820
F7.697348357810335
sS'h'
p3821
F5.446056559203839
sS'turner'
p3822
F7.29188324970217
sS'calling'
p3823
F7.697348357810335
sS'15th'
p3824
F8.39049553837028
sS'wish'
p3825
F8.39049553837028
sS'ohio'
p3826
F8.39049553837028
sS'missionsp'
p3827
F8.39049553837028
sS'view'
p3828
F7.697348357810335
sS'urch'
p3829
F8.39049553837028
sS'j'
p3830
F5.7514382087550215
sS'national'
p3831
F4.383162353137809
sS'9090'
p3832
F8.39049553837028
sS'breakaway'
p3833
F8.39049553837028
sS'canine'
p3834
F8.39049553837028
sS'immigrant'
p3835
F8.39049553837028
sS'intensity'
p3836
F8.39049553837028
sS'legacy'
p3837
F6.598736069142225
sS'edmunds'
p3838
F8.39049553837028
sS'storyte'
p3839
F8.39049553837028
sS'localdata'
p3840
F8.39049553837028
sS'callant'
p3841
F8.39049553837028
sS'stop'
p3842
F7.697348357810335
sS'progressive'
p3843
F7.29188324970217
sS'sibley'
p3844
F8.39049553837028
sS'creating'
p3845
F7.697348357810335
sS'walking'
p3846
F8.39049553837028
sS'cole'
p3847
F8.39049553837028
sS'destiny'
p3848
F7.00420117725039
sS'reform'
p3849
F8.39049553837028
sS'pattern'
p3850
F8.39049553837028
sS'motown'
p3851
F7.29188324970217
sS'lectureship'
p3852
F7.697348357810335
sS'synod'
p3853
F7.29188324970217
sS'pointes'
p3854
F8.39049553837028
sS'state'
p3855
F4.279621674196968
sS'2ohoo2006'
p3856
F8.39049553837028
sS'progress'
p3857
F6.598736069142225
sS'shekinah'
p3858
F7.697348357810335
sS'perfect'
p3859
F7.697348357810335
sS'devolpment'
p3860
F8.39049553837028
sS'gethsemane'
p3861
F7.697348357810335
sS'george'
p3862
F7.29188324970217
sS'ability'
p3863
F8.39049553837028
sS'opening'
p3864
F8.39049553837028
sS'joy'
p3865
F6.311053996690444
sS'monument'
p3866
F8.39049553837028
sS'agencies'
p3867
F8.39049553837028
sS'neonatal'
p3868
F8.39049553837028
sS'key'
p3869
F7.697348357810335
sS'police'
p3870
F6.0879104453762345
sS'precious'
p3871
F8.39049553837028
sS'amer'
p3872
F8.39049553837028
sS'withstanding'
p3873
F8.39049553837028
sS'distribution'
p3874
F8.39049553837028
sS'jon'
p3875
F8.39049553837028
sS'david'
p3876
F7.00420117725039
sS'undetermined'
p3877
F8.39049553837028
sS'mcafee'
p3878
F8.39049553837028
sS'career'
p3879
F7.29188324970217
sS'samaritan'
p3880
F7.29188324970217
sS'(mufi)'
p3881
F8.39049553837028
sS'equal'
p3882
F8.39049553837028
sS'drug'
p3883
F7.29188324970217
sS'eta'
p3884
F6.78105762593618
sS'motorcities'
p3885
F8.39049553837028
sS'swim'
p3886
F8.39049553837028
sS'puff'
p3887
F7.697348357810335
sS'highland'
p3888
F7.697348357810335
sS'montford'
p3889
F8.39049553837028
sS'glorious'
p3890
F7.00420117725039
sS'wear'
p3891
F8.39049553837028
sS'hinterlands'
p3892
F8.39049553837028
sS'co'
p3893
F6.311053996690444
sS'uawford'
p3894
F8.39049553837028
sS'harmonie'
p3895
F7.697348357810335
sS'cf'
p3896
F8.39049553837028
sS'laity'
p3897
F8.39049553837028
sS'walk'
p3898
F8.39049553837028
sS'carver'
p3899
F8.39049553837028
sS'carbon'
p3900
F8.39049553837028
sS'6520873443'
p3901
F8.39049553837028
sS'table'
p3902
F7.697348357810335
sS'pulmonary'
p3903
F8.39049553837028
sS'labor'
p3904
F6.19327096103406
sS'watkins'
p3905
F8.39049553837028
sS'johnny'
p3906
F8.39049553837028
sS'sturdevant'
p3907
F8.39049553837028
sS'aligning'
p3908
F8.39049553837028
sS'elmer'
p3909
F7.697348357810335
sS'bbb'
p3910
F8.39049553837028
sS'conservancy'
p3911
F6.19327096103406
sS'nurses'
p3912
F8.39049553837028
sS'kahn'
p3913
F8.39049553837028
sS'yaa'
p3914
F8.39049553837028
sS'(doj)'
p3915
F8.39049553837028
sS'trinity'
p3916
F5.825546180908743
sS'citadel'
p3917
F7.29188324970217
sS'boyden'
p3918
F8.39049553837028
sS'carriers'
p3919
F8.39049553837028
sS'diversity'
p3920
F7.697348357810335
sS'c.'
p3921
F8.39049553837028
sS'empowering'
p3922
F8.39049553837028
sS'zines'
p3923
F8.39049553837028
sS'hline'
p3924
F8.39049553837028
sS'salavation'
p3925
F8.39049553837028
sS'sales'
p3926
F8.39049553837028
sS'columba'
p3927
F8.39049553837028
sS'933'
p3928
F8.39049553837028
sS'elmhurst'
p3929
F7.697348357810335
sS'riverfront'
p3930
F7.697348357810335
sS'citizendetroit'
p3931
F8.39049553837028
sS'last'
p3932
F7.697348357810335
sS'present'
p3933
F8.39049553837028
sS'volunteer'
p3934
F7.697348357810335
sS'homes'
p3935
F6.311053996690444
sS'multi'
p3936
F7.697348357810335
sS'medici'
p3937
F8.39049553837028
sS'cranbrook'
p3938
F8.39049553837028
sS'awkunanaw'
p3939
F8.39049553837028
sS'lishner'
p3940
F8.39049553837028
sS'crusade'
p3941
F7.697348357810335
sS'will'
p3942
F8.39049553837028
sS'uawgm'
p3943
F8.39049553837028
sS'bayview'
p3944
F7.29188324970217
sS'acclaim'
p3945
F8.39049553837028
sS'apostle'
p3946
F7.00420117725039
sS'brazeal'
p3947
F7.697348357810335
sS'resident'
p3948
F7.697348357810335
sS'murphy'
p3949
F7.697348357810335
sS'site'
p3950
F8.39049553837028
sS'vp'
p3951
F8.39049553837028
sS'derrick'
p3952
F8.39049553837028
sS'ave'
p3953
F7.00420117725039
sS'ava'
p3954
F8.39049553837028
sS'blissfield'
p3955
F7.697348357810335
sS'happy'
p3956
F8.39049553837028
sS'russell'
p3957
F7.00420117725039
sS'buddhist'
p3958
F7.697348357810335
sS'administration'
p3959
F7.29188324970217
sS'connection'
p3960
F6.598736069142225
sS'unite'
p3961
F7.697348357810335
sS'campus'
p3962
F7.29188324970217
sS'verne'
p3963
F8.39049553837028
sS'unity'
p3964
F5.345973100646857
sS'northwest'
p3965
F5.90558888858228
sS'blight'
p3966
F7.29188324970217
sS'sustainable'
p3967
F8.39049553837028
sS'delivernace'
p3968
F8.39049553837028
sS'twelfth'
p3969
F8.39049553837028
sS'covenant'
p3970
F5.500123780474115
sS'phi'
p3971
F5.68244533726807
sS'ball'
p3972
F8.39049553837028
sS'raymond'
p3973
F7.697348357810335
sS'caesar'
p3974
F8.39049553837028
sS'pessin'
p3975
F8.39049553837028
sS'linwood'
p3976
F8.39049553837028
sS'outcast'
p3977
F8.39049553837028
sS'automation'
p3978
F8.39049553837028
sS'0044608'
p3979
F8.39049553837028
sS'gloria'
p3980
F8.39049553837028
sS'student'
p3981
F6.598736069142225
sS'transit'
p3982
F7.697348357810335
sS'sisters'
p3983
F5.90558888858228
sS'colts'
p3984
F8.39049553837028
sS'scholars'
p3985
F7.697348357810335
sS'mosaic'
p3986
F7.697348357810335
sS'rusk'
p3987
F8.39049553837028
sS'lupus'
p3988
F8.39049553837028
sS'ashley'
p3989
F8.39049553837028
sS'center'
p3990
F2.901557812213593
sS'records'
p3991
F8.39049553837028
sS'i'
p3992
F5.25500132244113
sS'well'
p3993
F7.29188324970217
sS'herbarium'
p3994
F8.39049553837028
sS'hudsonwebber'
p3995
F7.697348357810335
sS'command'
p3996
F8.39049553837028
sS'essie'
p3997
F8.39049553837028
sS'spectator'
p3998
F8.39049553837028
sS'english'
p3999
F8.39049553837028
sS'yougives'
p4000
F8.39049553837028
sS'mausoleum'
p4001
F8.39049553837028
sS'issachar'
p4002
F8.39049553837028
sS'drawing'
p4003
F8.39049553837028
sS'inc.'
p4004
F5.557282194314064
sS'restore'
p4005
F8.39049553837028
sS'ignatius'
p4006
F8.39049553837028
sS'carrie'
p4007
F7.697348357810335
sS'cristo'
p4008
F7.00420117725039
sS'vedic'
p4009
F7.29188324970217
sS'executive'
p4010
F7.697348357810335
sS'clinic'
p4011
F6.78105762593618
sS'shiloh'
p4012
F7.697348357810335
sS'nurturing'
p4013
F8.39049553837028
sS'doss'
p4014
F7.697348357810335
sS'paul'
p4015
F5.345973100646857
sS'booker'
p4016
F8.39049553837028
sS'straightgate'
p4017
F8.39049553837028
sS'westminster'
p4018
F8.39049553837028
sS'roses'
p4019
F8.39049553837028
sS'residential'
p4020
F7.29188324970217
sS'vida'
p4021
F7.697348357810335
sS'point'
p4022
F6.78105762593618
sS'smith'
p4023
F6.78105762593618
sS'lake'
p4024
F7.697348357810335
sS'bench'
p4025
F8.39049553837028
sS'brookins'
p4026
F8.39049553837028
sS'adoption'
p4027
F7.697348357810335
sS'citizen'
p4028
F8.39049553837028
sS'riverside'
p4029
F7.00420117725039
sS'bishops'
p4030
F8.39049553837028
sS'advanced'
p4031
F8.39049553837028
sS'smart'
p4032
F8.39049553837028
sS'evaluators'
p4033
F8.39049553837028
sS'sisson'
p4034
F8.39049553837028
sS'centrial'
p4035
F8.39049553837028
sS'ecclesia'
p4036
F7.697348357810335
sS'government'
p4037
F6.19327096103406
sS'ministriesinternational'
p4038
F8.39049553837028
sS'mattie'
p4039
F7.697348357810335
sS'wendell'
p4040
F8.39049553837028
sS'kellogg'
p4041
F7.697348357810335
sS'zimbabwe'
p4042
F8.39049553837028
sS'cedar'
p4043
F8.39049553837028
sS'leon'
p4044
F8.39049553837028
sS'swanson'
p4045
F8.39049553837028
sS'press'
p4046
F6.311053996690444
sS'incoporated'
p4047
F8.39049553837028
sS'knox'
p4048
F8.39049553837028
sS'earthen'
p4049
F8.39049553837028
sS'cnty'
p4050
F8.39049553837028
sS'richard'
p4051
F7.00420117725039
sS'michiga'
p4052
F8.39049553837028
sS'success'
p4053
F7.29188324970217
sS'miami'
p4054
F8.39049553837028
sS'purchasing'
p4055
F8.39049553837028
sS'perpetual'
p4056
F8.39049553837028
sS'extremely'
p4057
F8.39049553837028
sS'karen'
p4058
F8.39049553837028
sS'candy'
p4059
F8.39049553837028
sS'vistors'
p4060
F8.39049553837028
sS'controllers'
p4061
F7.697348357810335
sS'eicosanoid'
p4062
F8.39049553837028
sS'workz'
p4063
F8.39049553837028
sS'chica'
p4064
F8.39049553837028
sS'palpable'
p4065
F8.39049553837028
sS'martin'
p4066
F7.697348357810335
sS'works'
p4067
F6.0879104453762345
sS'pisgah'
p4068
F8.39049553837028
sS'italian'
p4069
F8.39049553837028
sS'schaapfoundation'
p4070
F8.39049553837028
sS'habitat'
p4071
F7.29188324970217
sS'endeavor'
p4072
F8.39049553837028
sS'village'
p4073
F5.557282194314064
sS'alive'
p4074
F7.29188324970217
sS'immortal'
p4075
F8.39049553837028
sS'hush'
p4076
F8.39049553837028
sS'vsa'
p4077
F7.697348357810335
sS'growth'
p4078
F6.444585389314967
sS'deliverance'
p4079
F4.8939879769038
sS'teamos'
p4080
F8.39049553837028
sS'proper'
p4081
F8.39049553837028
sS'home'
p4082
F5.132399000348798
sS'supportive'
p4083
F7.29188324970217
sS'employment'
p4084
F7.697348357810335
sS'graduation'
p4085
F8.39049553837028
sS'congress'
p4086
F7.29188324970217
sS'veba'
p4087
F6.78105762593618
sS'lafleur'
p4088
F8.39049553837028
sS'delaware'
p4089
F8.39049553837028
sS'miner'
p4090
F8.39049553837028
sS'joachim'
p4091
F8.39049553837028
sS'lemay'
p4092
F8.39049553837028
sS'shelter'
p4093
F7.29188324970217
sS'fountain'
p4094
F5.99260026557191
sS'bosses'
p4095
F8.39049553837028
sS'chains'
p4096
F8.39049553837028
sS'islander'
p4097
F7.697348357810335
sS'80479'
p4098
F8.39049553837028
sS'apostolic'
p4099
F4.383162353137809
sS'journal'
p4100
F8.39049553837028
sS'bowling'
p4101
F8.39049553837028
sS'miriam'
p4102
F7.697348357810335
sS'agri'
p4103
F8.39049553837028
sS'wesley'
p4104
F8.39049553837028
sS'host'
p4105
F8.39049553837028
sS'worthy'
p4106
F8.39049553837028
sS'sheriffs'
p4107
F8.39049553837028
sS'a.'
p4108
F7.29188324970217
sS'refuge'
p4109
F6.0879104453762345
sS'publishing'
p4110
F8.39049553837028
sS'about'
p4111
F7.29188324970217
sS'berkery'
p4112
F8.39049553837028
sS'freedom'
p4113
F6.444585389314967
sS'dependence'
p4114
F7.697348357810335
sS'greening'
p4115
F7.697348357810335
sS'holdings'
p4116
F7.00420117725039
sS'epiphany'
p4117
F8.39049553837028
sS'dominion'
p4118
F7.697348357810335
sS'340011600'
p4119
F8.39049553837028
sS'trinosophes'
p4120
F8.39049553837028
sS'alexanders'
p4121
F8.39049553837028
sS'persuaded'
p4122
F8.39049553837028
sS'executives'
p4123
F7.697348357810335
sS'seniors'
p4124
F8.39049553837028
sS'cocos'
p4125
F8.39049553837028
sS'alliance'
p4126
F4.864135013754119
sS'childrens'
p4127
F5.094658672365951
sS'networkdetroit'
p4128
F8.39049553837028
sS'runnels'
p4129
F8.39049553837028
sS'travelers'
p4130
F7.29188324970217
sS'teamsters'
p4131
F5.68244533726807
sS'terry'
p4132
F8.39049553837028
sS'catherine'
p4133
F7.697348357810335
sS'boggs'
p4134
F7.00420117725039
sS'chemists'
p4135
F8.39049553837028
sS'evangel'
p4136
F7.697348357810335
sS'promise'
p4137
F6.444585389314967
sS'lovell'
p4138
F8.39049553837028
sS'shoppe'
p4139
F8.39049553837028
sS'roads'
p4140
F8.39049553837028
sS'proteolysis'
p4141
F8.39049553837028
sS'merc'
p4142
F8.39049553837028
sS'tabernacle'
p4143
F4.606305904452019
sS'jubilee'
p4144
F7.697348357810335
sS'van'
p4145
F8.39049553837028
sS'legends'
p4146
F8.39049553837028
sS'analyst'
p4147
F8.39049553837028
sS'fordthomas'
p4148
F8.39049553837028
sS'righteous'
p4149
F8.39049553837028
sS'museum'
p4150
F5.68244533726807
sS'jacqulin'
p4151
F8.39049553837028
sS'trenches'
p4152
F8.39049553837028
sS'cocic'
p4153
F8.39049553837028
sS'inner'
p4154
F7.697348357810335
sS'crucis'
p4155
F7.697348357810335
sS'dewey'
p4156
F8.39049553837028
sS'incorp'
p4157
F8.39049553837028
sS'ywca'
p4158
F8.39049553837028
sS'charfoos'
p4159
F8.39049553837028
sS'north'
p4160
F5.394763264816289
sS'annabelle'
p4161
F8.39049553837028
sS'storehouse'
p4162
F7.29188324970217
sS'bur'
p4163
F8.39049553837028
sS'funds'
p4164
F8.39049553837028
sS'mutter'
p4165
F8.39049553837028
sS'negrin'
p4166
F8.39049553837028
sS'volume'
p4167
F8.39049553837028
sS'construction'
p4168
F8.39049553837028
sS'mssp'
p4169
F8.39049553837028
sS'ravendale'
p4170
F8.39049553837028
sS'haring'
p4171
F8.39049553837028
sS'loc'
p4172
F8.39049553837028
sS'seir'
p4173
F8.39049553837028
sS'baptist'
p4174
F3.015217130686115
sS'made'
p4175
F8.39049553837028
sS'wise'
p4176
F7.697348357810335
sS'places'
p4177
F8.39049553837028
sS'levin'
p4178
F7.697348357810335
sS'cheboygan'
p4179
F8.39049553837028
sS'triumphant'
p4180
F8.39049553837028
sS'warmth'
p4181
F7.697348357810335
sS'creekside'
p4182
F8.39049553837028
sS'pl'
p4183
F7.697348357810335
sS'35398'
p4184
F8.39049553837028
sS'cake'
p4185
F8.39049553837028
sS'lvl'
p4186
F8.39049553837028
sS'(lisc)'
p4187
F8.39049553837028
sS'artplace'
p4188
F8.39049553837028
sS'foster'
p4189
F7.29188324970217
sS'irish'
p4190
F8.39049553837028
sS'pfrs'
p4191
F6.0879104453762345
sS'danialle'
p4192
F8.39049553837028
sS'universal'
p4193
F5.446056559203839
sS'humphries'
p4194
F8.39049553837028
sS'dialogue'
p4195
F8.39049553837028
sS'ins'
p4196
F7.697348357810335
sS'deliverence'
p4197
F8.39049553837028
sS'inn'
p4198
F7.29188324970217
sS'ambassadors'
p4199
F7.697348357810335
sS'education'
p4200
F4.701616084256344
sS'autism'
p4201
F7.29188324970217
sS'authority'
p4202
F6.311053996690444
sS'inc'
p4203
F1.8084703994774538
sS'diego'
p4204
F8.39049553837028
sS'mutual'
p4205
F7.697348357810335
sS'spight'
p4206
F8.39049553837028
sS'48'
p4207
F8.39049553837028
sS'corporation'
p4208
F3.470514612542155
sS'casoe'
p4209
F8.39049553837028
sS'directors'
p4210
F8.39049553837028
sS'40'
p4211
F8.39049553837028
sS'saviour'
p4212
F7.697348357810335
sS'harriel'
p4213
F8.39049553837028
sS'book'
p4214
F7.29188324970217
sS'branch'
p4215
F7.697348357810335
sS'u'
p4216
F5.825546180908743
sS'pension'
p4217
F8.39049553837028
sS'star'
p4218
F5.825546180908743
sS'ttee'
p4219
F8.39049553837028
sS'ficano'
p4220
F8.39049553837028
sS'dolorsa'
p4221
F8.39049553837028
sS'reorientation'
p4222
F8.39049553837028
sS'missouri'
p4223
F8.39049553837028
sS'june'
p4224
F8.39049553837028
sS'bundle'
p4225
F8.39049553837028
sS'cruelty'
p4226
F8.39049553837028
sS'margaret'
p4227
F7.29188324970217
sS'chance'
p4228
F6.78105762593618
sS'rey'
p4229
F7.29188324970217
sS'pathways'
p4230
F8.39049553837028
sS'delphine'
p4231
F8.39049553837028
sS'imani'
p4232
F7.697348357810335
sS'pervis'
p4233
F8.39049553837028
sS'friends'
p4234
F5.094658672365951
sS'christians'
p4235
F8.39049553837028
sS'churchbaptist'
p4236
F8.39049553837028
sS'ghost'
p4237
F7.697348357810335
sS'anthony'
p4238
F7.29188324970217
sS'sphinx'
p4239
F7.29188324970217
sS'auxiliary'
p4240
F6.78105762593618
sS'repertoire'
p4241
F8.39049553837028
sS'baker'
p4242
F7.697348357810335
sS'bc'
p4243
F8.39049553837028
sS'rule'
p4244
F8.39049553837028
sS'original'
p4245
F8.39049553837028
sS'wcccd'
p4246
F8.39049553837028
sS'081077'
p4247
F8.39049553837028
sS'rhema'
p4248
F7.00420117725039
sS'lecester'
p4249
F8.39049553837028
sS'4h'
p4250
F8.39049553837028
sS'richardson'
p4251
F8.39049553837028
sS'wilma'
p4252
F8.39049553837028
sS'retirees'
p4253
F6.78105762593618
sS'buoy'
p4254
F8.39049553837028
ssbsg188
F5.066483683317939
sg21
g22
sg189
I00
sg11
(lp4255
g0
(g13
g7
Ntp4256
Rp4257
(dp4258
g17
S'(wholeFieldPredicate, name)'
p4259
sg19
g20
sg21
g22
sbag0
(g13
g7
Ntp4260
Rp4261
(dp4262
g17
S'(firstTokenPredicate, name)'
p4263
sg19
g27
sg21
g22
sbag0
(g13
g7
Ntp4264
Rp4265
(dp4266
g17
S'(commonIntegerPredicate, name)'
p4267
sg19
g32
sg21
g22
sbag0
(g13
g7
Ntp4268
Rp4269
(dp4270
g17
S'(nearIntegersPredicate, name)'
p4271
sg19
g37
sg21
g22
sbag0
(g13
g7
Ntp4272
Rp4273
(dp4274
g17
S'(firstIntegerPredicate, name)'
p4275
sg19
g42
sg21
g22
sbag0
(g13
g7
Ntp4276
Rp4277
(dp4278
g17
S'(sameThreeCharStartPredicate, name)'
p4279
sg19
g47
sg21
g22
sbag0
(g13
g7
Ntp4280
Rp4281
(dp4282
g17
S'(sameFiveCharStartPredicate, name)'
p4283
sg19
g52
sg21
g22
sbag0
(g13
g7
Ntp4284
Rp4285
(dp4286
g17
S'(sameSevenCharStartPredicate, name)'
p4287
sg19
g57
sg21
g22
sbag0
(g13
g7
Ntp4288
Rp4289
(dp4290
g17
S'(commonTwoTokens, name)'
p4291
sg19
g62
sg21
g22
sbag0
(g13
g7
Ntp4292
Rp4293
(dp4294
g17
S'(commonThreeTokens, name)'
p4295
sg19
g67
sg21
g22
sbag0
(g13
g7
Ntp4296
Rp4297
(dp4298
g17
S'(fingerprint, name)'
p4299
sg19
g72
sg21
g22
sbag0
(g13
g7
Ntp4300
Rp4301
(dp4302
g17
S'(oneGramFingerprint, name)'
p4303
sg19
g77
sg21
g22
sbag0
(g13
g7
Ntp4304
Rp4305
(dp4306
g17
S'(twoGramFingerprint, name)'
p4307
sg19
g82
sg21
g22
sbag0
(g13
g7
Ntp4308
Rp4309
(dp4310
g17
S'(sortedAcronym, name)'
p4311
sg19
g87
sg21
g22
sbag0
(g153
g7
Ntp4312
Rp4313
(dp4314
g122
F0.2
sg17
S'(0.2, name)'
p4315
sg21
g22
sbag0
(g153
g7
Ntp4316
Rp4317
(dp4318
g122
F0.4
sg17
S'(0.4, name)'
p4319
sg21
g22
sbag0
(g153
g7
Ntp4320
Rp4321
(dp4322
g122
F0.6
sg17
S'(0.6, name)'
p4323
sg21
g22
sbag0
(g153
g7
Ntp4324
Rp4325
(dp4326
g122
F0.8
sg17
S'(0.8, name)'
p4327
sg21
g22
sbag0
(g170
g7
Ntp4328
Rp4329
(dp4330
g122
F0.2
sg17
S'(0.2, name)'
p4331
sg21
g22
sbag0
(g170
g7
Ntp4332
Rp4333
(dp4334
g122
F0.4
sg17
S'(0.4, name)'
p4335
sg21
g22
sbag0
(g170
g7
Ntp4336
Rp4337
(dp4338
g122
F0.6
sg17
S'(0.6, name)'
p4339
sg21
g22
sbag0
(g170
g7
Ntp4340
Rp4341
(dp4342
g122
F0.8
sg17
S'(0.8, name)'
p4343
sg21
g22
sbasbasS'bias'
p4344
cnumpy.core.multiarray
scalar
p4345
(cnumpy
dtype
p4346
(S'f8'
p4347
I0
I1
tp4348
Rp4349
(I3
S'<'
p4350
NNNI-1
I-1
I0
tp4351
bS'\xfc\x8ea\x9a\x81>\xfd?'
p4352
tp4353
Rp4354
stp4355
Rp4356
(dp4357
S'primary_fields'
p4358
(lp4359
g9
ag192
asS'n_fields'
p4360
I2
sS'derived_start'
p4361
I2
sb.(ccopy_reg
_reconstructor
p0
(cdedupe.predicates
CompoundPredicate
p1
c__builtin__
object
p2
Ntp3
Rp4
(dp5
S'predicates'
p6
(g0
(cdedupe.predicates
SimplePredicate
p7
g2
Ntp8
Rp9
(dp10
S'__name__'
p11
S'(sameSevenCharStartPredicate, name)'
p12
sS'func'
p13
cdedupe.predicates
sameSevenCharStartPredicate
p14
sS'field'
p15
S'name'
p16
sbg0
(g7
g2
Ntp17
Rp18
(dp19
g11
S'(commonThreeTokens, name)'
p20
sg13
cdedupe.predicates
commonThreeTokens
p21
sg15
g16
sbtp22
sg11
V(SimplePredicate: (sameSevenCharStartPredicate, name), SimplePredicate: (commonThreeTokens, name))
p23
sbg0
(g1
g2
Ntp24
Rp25
(dp26
g6
(g0
(g7
g2
Ntp27
Rp28
(dp29
g11
S'(sortedAcronym, name)'
p30
sg13
cdedupe.predicates
sortedAcronym
p31
sg15
g16
sbg0
(g7
g2
Ntp32
Rp33
(dp34
g11
S'(oneGramFingerprint, name)'
p35
sg13
cdedupe.predicates
oneGramFingerprint
p36
sg15
g16
sbtp37
sg11
V(SimplePredicate: (sortedAcronym, name), SimplePredicate: (oneGramFingerprint, name))
p38
sbg0
(g1
g2
Ntp39
Rp40
(dp41
g6
(g9
g0
(cdedupe.predicates
TfidfTextSearchPredicate
p42
g2
Ntp43
Rp44
(dp45
S'threshold'
p46
F0.6
sg11
S'(0.6, name)'
p47
sg15
g16
sbtp48
sg11
V(SimplePredicate: (sameSevenCharStartPredicate, name), TfidfTextSearchPredicate: (0.6, name))
p49
sbg0
(g1
g2
Ntp50
Rp51
(dp52
g6
(g18
g0
(g42
g2
Ntp53
Rp54
(dp55
g46
F0.8
sg11
S'(0.8, name)'
p56
sg15
g16
sbtp57
sg11
V(SimplePredicate: (commonThreeTokens, name), TfidfTextSearchPredicate: (0.8, name))
p58
sbg0
(g1
g2
Ntp59
Rp60
(dp61
g6
(g0
(cdedupe.predicates
TfidfNGramSearchPredicate
p62
g2
Ntp63
Rp64
(dp65
g46
F0.8
sg11
S'(0.8, name)'
p66
sg15
g16
sbg28
tp67
sg11
V(TfidfNGramSearchPredicate: (0.8, name), SimplePredicate: (sortedAcronym, name))
p68
sbg0
(g1
g2
Ntp69
Rp70
(dp71
g6
(g9
g64
tp72
sg11
V(SimplePredicate: (sameSevenCharStartPredicate, name), TfidfNGramSearchPredicate: (0.8, name))
p73
sbg0
(g1
g2
Ntp74
Rp75
(dp76
g6
(g54
g33
tp77
sg11
V(TfidfTextSearchPredicate: (0.8, name), SimplePredicate: (oneGramFingerprint, name))
p78
sbtp79
.(dp0
S'name'
p1
(dp2
S'TfidfNGramSearchPredicate'
p3
c__builtin__
set
p4
((lp5
Vch
p6
aVnc
p7
aVst
p8
aVte
p9
aVio
p10
aVti
p11
aVan
p12
aVri
p13
aVer
p14
atp15
Rp16
sS'TfidfTextSearchPredicate'
p17
g4
((lp18
tp19
Rp20
ss.